((iwxpy.utils.puid_map
TwoWayDict
p0
(dp1
S'_reversed'
p2
(dp3
Va53fa3e3
p4
V@7e8bb6de3cb2bd55b2c836597963b12284140135fe32afe271909d533204cf9b
p5
sV51827c5b
p6
V@16bbbe8f79cbc1243d120db8dc781da21bac4c32fef5dfd54f723f21cefe6b79
p7
sVa9a685b4
p8
V@eec32b32299c8b58992bee18ff123b2bc64fdc6ea0d64f949e7ee910b1635477
p9
sVc8fb1eb8
p10
V@1a84959240aa00ae8c97ac7dd0750a73fe319933834f5a5f5269d7d0c8fb1eb8
p11
sV156f192d
p12
V@4d5e972e2b64e69ec7c85c9e156f192d
p13
sV6b447a49
p14
V@c5db85dcbb4b2df3bdcb23716b5ca094
p15
sV086006dd
p16
V@e63bd7d140176b4c8a28d64d086006dd
p17
sV037ebdd6
p18
V@757a85b51b45c00115912d56037ebdd6
p19
sVdda2c32d
p20
V@9af7673fabd78c0c486278f66f320e4b19fc08722e8ccb1f592a43dbdda2c32d
p21
sV27f4145e
p22
V@15f2fa106322801cba667ea01e5b65bb85f0ce97d1591c333501d4cc984f9cb9
p23
sV458f8c98
p24
V@a238e05bb20a78e1fed1aa73136b668dee8930503a97523a66f260102c2b3e65
p25
sV26fb6dae
p26
V@0462ac138d412a7558848c3e02bbb23c88c83315d0e0bab99cc1cc0826fb6dae
p27
sV91c4f14c
p28
V@@f24834b3d67382a3f377869c5e6f12c48f53aaf7e242dadbf92139f091c4f14c
p29
sVbe8b941e
p30
V@818b99b9f6e86c6416e496ef51e474caecde07f2d744648a17fefe14be8b941e
p31
sVfef95d22
p32
V@073ee5a8ade935060dd136ae042f30ba558a66793a8bc9c8e623f291fef95d22
p33
sVa33e6b1f
p34
V@3f0719557ecd3268b3489018a33e6b1f
p35
sV72ed0403
p36
V@3d54c229cc45b0e6ba5851b872ed0403
p37
sVe97dcfff
p38
V@89e71f72f0ad97c2243a34ebe97dcfff
p39
sV6fde9625
p40
V@80e59fcca820036e995e613ca505b625043f818f1476855b30e53fd36fde9625
p41
sV10138c7e
p42
V@81f9f8da3f7f4043dca221935a2b5b737c06a40b260eaaeb585928e910138c7e
p43
sV3ace1b8d
p44
V@3f27df26283aa57319b3c361b3d9e18ea0d001e117217fd97a2242dc3ace1b8d
p45
sV24a1e4c8
p46
V@11ecb762e0485ae0fc02e350c08bc40da7fa8b361ca0892347a2503124a1e4c8
p47
sV752f88be
p48
V@e0bcc76cdf916e57f88d845e34457c29a1e4541b16d3ff9eb473d916752f88be
p49
sVb0daaff0
p50
V@b51482c07b9fb16ed722ec78b0daaff0
p51
sV70aecaa9
p52
V@27540e8e9b3a9b2a42cf53440ded2615b64304c35de1379b7f1b433770aecaa9
p53
sVda051843
p54
V@f37ddab83402bf594561808244ce734e35c09ced887331240cd26cbfda051843
p55
sVa7954f7f
p56
V@470af7feff46cacaf02c3edc0cb3b982
p57
sVb6ec6b30
p58
V@53678dfcb1e9c4f0838351fbc03aff618265f2348cc9d878c5a62a7331fe1497
p59
sVf6635d93
p60
V@de5622ed6e0104e06b693cdcf6635d93
p61
sVdee1dc87
p62
V@48f90185bfe6c1bfc4309027dee1dc87
p63
sV22ab7c14
p64
V@4e987e80fddd554fefadfc0922ab7c14
p65
sV33a3f54a
p66
V@28028b8af795c260a008423beabdd73b856f881204f5ec911572281533a3f54a
p67
sVadbcd12d
p68
V@df954d5f9c0814e6ff74bac0a9804c458bfb8a5f44831d6c8e008705adbcd12d
p69
sV9d0dbc1e
p70
V@5b50184852ab94a4ffdb2a9b38bc45a603e8030273d7548f827a8b039d0dbc1e
p71
sVcd838caa
p72
V@8185b1d2c97db587e084756552bb1e660190be5b7235ab4ee9f48f00cd838caa
p73
sVc7a3c13f
p74
V@@781a4815767bf2a754b6e118662ed0542bd0ea6e63a434924344d493c7a3c13f
p75
sVe8f696da
p76
V@2986503dc02d239cee1b4cdbe8f696da
p77
sV02d05996
p78
V@9de7c026efdbcf090edd64fa1b5aa4ad21d5bb2f795af4e8f608ad0402d05996
p79
sV8d46b3b9
p80
V@19f6754a0f720d73089823398d46b3b9
p81
sV2e9d8575
p82
V@78827ea2f6c0078e8df382ea2e9d8575
p83
sV7c0b5ccd
p84
V@73742d34264b8c32ddf408aeaad9d4d2ba7553721ad206393e6bea60af7b3e9e
p85
sVc9257559
p86
V@79796df9bc217cedcf1d9e30c9257559
p87
sV9f014704
p88
V@17dac742edd6ee670c357b6fbb5845cae5e50209ec5f0ada3bb60f6e9f014704
p89
sVb1124681
p90
V@af80d2c6dc1d5c7dddd690c111431588e904e4fc3ae64f2caeb12135b1124681
p91
sV2f7bf9f9
p92
V@1c97f429baa843d7ab6a764755c4bf9a7f29a0f0f788eb130c870d7a2f7bf9f9
p93
sVca1ee6b4
p94
V@dc695d0250ea4ecebb1c6c199e4e334392d82144977e6c76cb09f8948e877085
p95
sV36159be4
p96
V@01565a9251f3a17d7ad9ccf336159be4
p97
sV32d42ed5
p98
V@ab93f037abf5c38aa106b96c32d42ed5
p99
sV1e118ec3
p100
V@@67f409bd4031f4e0d0d860e5c638f299b9052ff11f79fee70ee5226f01dcf580
p101
sV7d1300dc
p102
V@75987cf18699bcd3d8cc17dbcdbe7ea931e19faaa8ea92b8eb8bfa17809dbfe3
p103
sVe4a2d148
p104
V@87283068a28cb31a2ecd5d7999ec6109
p105
sVbbb4d55d
p106
V@de399d8cf24ca2e741a5f200620f66a0d56f54583a6a57174d2062aebbb4d55d
p107
sV735e0b76
p108
V@3799227329af32c6150a5e31735e0b76
p109
sV3c49b28f
p110
V@fe058901f25dc91ea07f29573c49b28f
p111
sVb8ba7ca8
p112
V@f1329b37bc7038bae79e41d487ec2b146d3c2ba565f6dfa2ff2e7fcd8024d1ca
p113
sVfcc97345
p114
V@8dc7fc0f8e462d38ea862c294e315a576bae1ee8252787130e2d3018fcc97345
p115
sV7a7d8da3
p116
V@dd02d9a1302f5edf0acf5f9bdf046981bd7828228ea23e7f5b50c2267a7d8da3
p117
sV53f8d60a
p118
V@203d4d7233f2c454b5ff176553f8d60a
p119
sV5906b8bf
p120
V@e605079ee1fc70ea9772fed2ffb6c9e8
p121
sV22b70444
p122
V@5246febac61379d1ae48448ceb1cf1bebf8888ad767379c9ab2d694422b70444
p123
sVf037bc12
p124
V@21cf3fd404511c04becf356f3e58d818865cbeb6b2f8b89d6ebdad76f037bc12
p125
sV13569178
p126
V@719a6cf22684af573ad2e41213569178
p127
sVeebcc67c
p128
V@8e484cfb03e5cdf6d136d4d3eebcc67c
p129
sVb03c63b0
p130
V@4ca8ffb2d462f577c17d5e7dc0f440d8
p131
sV5797034a
p132
V@b81aaa0e03745e38a9588c305797034a
p133
sV40d070ef
p134
V@81a8e231f7eee628472fe64fc92ee988
p135
sV52d0cd43
p136
V@e1fd4ac64ed09681cb51d636c8c4c4abf581fc11f5996ccf73db3dd452d0cd43
p137
sVb3045cdb
p138
V@e69191a7020c81ae164cc9ad98c11dcde9526d23fec472bb88edef44dc42cca2
p139
sVed824387
p140
V@bef1998aa19d5875e39e1cb82c1d5bed
p141
sV99e34f84
p142
V@4959fff54d8f23f26da4f6f955277d4be944283d7d937a7636ee936199e34f84
p143
sVc60b4431
p144
V@b50c491262c4c8ca8cdd6ab1f1c7c27b
p145
sV471aeac1
p146
V@0f309f8010223f8182b6f58c471aeac1
p147
sV73ba14b0
p148
V@d2932dd7fc3ffa5331c7eb62bc42446c5fbd13261c39de477438161345ea345c
p149
sVdc300d03
p150
V@295a3d18360620349b7fc739dc300d03
p151
sVe504b1ed
p152
V@2a4d17eaf7db4de1ed48d435e504b1ed
p153
sV82309a3e
p154
V@bfd6b069aa6a793425a5c2e282309a3e
p155
sVa4d306c1
p156
V@f2c22d593371748c83e13e1bf98cc314
p157
sV9ac07910
p158
V@f3115cf2549ca1e1c066c9ad9ac07910
p159
sVedd0045f
p160
V@b38a28e54c7b92f23f38d53455d2fb71
p161
sVc1648f6d
p162
V@ef008afb109702002c0684b263d5c7c9f3b87889d452a089aca74e1dc1648f6d
p163
sV9a59c23c
p164
V@415e36980d5a85983d6cbf7d9a59c23c
p165
sV314559ee
p166
V@667435d2e681480005d69eea4ad280ff3020852d85e4a39d50fa33a31ef29975
p167
sV28cf4418
p168
V@01d0491e83bee2ce82c2e66928cf4418
p169
sV72837833
p170
V@07f389b14ff69e867b32b063c167d5f4d07abc7587dee79b1818269372837833
p171
sVf2c4f157
p172
V@9651b2025aa50d49b647f78750f2df2a3a120cca9882303b8a929f1ef2c4f157
p173
sVcfe0a1ee
p174
V@f2c9a214b942d3327e6f9f7f13644fcb5d41f99bc6058cfc6bf63bf5e8d6d662
p175
sVb4ddd0f3
p176
V@f30f9b979de2ab2bc2da30dfb4ddd0f3
p177
sV7a3f5721
p178
V@@9b9272e4ff2545ff263138e5916fb03d3dd08fcf89df5c7e2c42523d7a3f5721
p179
sV3c834ca3
p180
V@f4344a8d027ecda205482cbb8b6843bf8265f18fc7807ecc41c593003c834ca3
p181
sV746eb285
p182
V@f18627f4a59b00b4cc083772dda262f9204ebb16e7bfeede7902e828746eb285
p183
sVeaf31224
p184
V@0e17ce475e645e2a2cf666e7997e1bd5587753b3c5e40c9a1071ba3feaf31224
p185
sV1e239ef9
p186
V@3656598946031815249aa7138107ad9f0935bdb588b133c0e69c9cc71e239ef9
p187
sV5016a561
p188
V@7ca98ded1381c4eafceb26a463a1f4fe
p189
sVcaf309a3
p190
V@496d26bf7250e317ba89c88b3f799b392b62ca256c8134bdc6412f8ecaf309a3
p191
sVb5ebb43d
p192
V@5e1b39193672814f0c0b12ff0590bc6dc9d84f1fb7ebed14bad611ceb5ebb43d
p193
sVf1190310
p194
V@aa75af32ee6ca739084f8a469779d60f62baee69afba294cc2b29a1ef1190310
p195
sV21abbb1c
p196
V@41b0319e17c3db4093239dfa21abbb1c
p197
sV4695fee9
p198
V@0725147d9e12e4d9e9552fc24695fee9
p199
sV8c68f15e
p200
V@678c9818b7cf2bab6168ae0710eca9e780ee2c085f5beaee97cfde9dd68d8eeb
p201
sV562ad93b
p202
V@08b1214f51dd80841509387f656a12f480c6395eed48afb78eed7bb3562ad93b
p203
sVdb18a361
p204
V@e3d98f54be31bcdb3d46f60069e0f578
p205
sVcc18ed34
p206
V@5c44c16186a7fc25ae43e28ccc18ed34
p207
sVbabd055e
p208
V@b09530229ccd76a47baf0b551c6e6ba39871ab94db2e3b9340cd3464babd055e
p209
sVab4df24b
p210
V@81391f46955ebe26f2bb5cc853774b8723c4f4a79c9ca4d1bfd6d493a8999455
p211
sV5a4088f6
p212
V@4282e5117de3f8c0e18ae01b0c693b17ce158b7a54491b30ec4a1d8a5a4088f6
p213
sVa4b2bf20
p214
V@cce56987e24d12e9581bb9aba4b2bf20
p215
sV1f795584
p216
V@b811ab7cb35c557a4d44086a5f30f8c245301c558250316b3f74818d1f795584
p217
sV373f4a78
p218
V@012581ee96b0a7e3bebb6c05373f4a78
p219
sV11906d70
p220
V@367e85ec96c5c0ecb8a61fd382e7bb6a0fdd01b9360704f5e8b3505c11906d70
p221
sV853c6f44
p222
V@f9e6fe6b059b65368a817608ff346573c823a0324bc3317f52274a55853c6f44
p223
sVee15f316
p224
V@d19f6968fed9da3b0403f49cbd0d090e608a382e51fe261ff6b28c66528e3909
p225
sV2428fe9d
p226
V@1337a7f462d3fa9cbbb3c59dd39b94d724b0917446c62b636d1a48bc2428fe9d
p227
sVa915dead
p228
V@cba4897a00da5d415ccc71cca915dead
p229
sV25e3acc9
p230
V@9f246dff00eac56d87fe5315d95b1349e8389c0fc924ddbb8a54a2f125e3acc9
p231
sV87058e1b
p232
V@aafb87b839d7afbc8255479a0a641136
p233
sV46ebae44
p234
V@ecd3e1a29f45176533ea993316cca9a41198ee7f565c47245492264246ebae44
p235
sVe047b39f
p236
V@3a1df98ab9c734f45facaf27fae465dc
p237
sV57a5ebc3
p238
V@b90a7d3b378ae511770e79bf57a5ebc3
p239
sVe18ee81c
p240
V@09bddb2cbb8bb1b9026762f5113c8047996e8bc73df9d44fbab7c563e18ee81c
p241
sV3b07d84b
p242
V@96dfb32b765a488c045e4a6f36848e7efecf78cbe343a8b41a90adaa3b07d84b
p243
sVbb57e542
p244
V@c549133c77a75e0de31e172ff442825e0885baf1eb731a4f60bef53dbb57e542
p245
sVf16cbbcc
p246
V@ecefd08e278fb9f6a5deb54f3b42e25de16ed0dc6ea892e5279ec608f16cbbcc
p247
sV83f9cb6f
p248
V@ec658922650d032bcdda6c1c504e12fd
p249
sVe1997799
p250
V@3a6a4eb85856e39698775bcffff25f62c6dd6796a96ae5d300feab1fe1997799
p251
sVea8039ed
p252
V@30111a924291b5bbd219574bea8039ed
p253
sV557af401
p254
V@88bba2f84ce8f7d4376708aa557af401
p255
sV49164981
p256
V@33870765acfb3fc9f8e91651d2a7fbcd4c72e6ac8e5573e1f2f0948c49164981
p257
sV8bbe96a1
p258
V@aa29c81f95f7c18211735b2f05b7acd8839df4a36dd49379c97bbe588bbe96a1
p259
sVf195e873
p260
V@59b67ee71b15d5ba58fafc911370618a4df39a1c515784e91c4c10f9b3a809b3
p261
sV54b16c9f
p262
V@18af8c50cb117ec4b6e0bf74ed4323236d43e715cb8f5e57b9f8f6f154b16c9f
p263
sV960a6952
p264
V@f6387f00104fa4f7b563a8e9d23dbe91b14b5fdf450012c08d881fdb960a6952
p265
sV9fc22d83
p266
V@7403366f21f0ca3b839347b01fe894e64e5e7545d40ceee08dc8ec529fc22d83
p267
sV58fb720e
p268
V@f093412befbc27dc2306a2e923967582fcd5b088e5cb5b22b6e6d71a58fb720e
p269
sV8b8bf756
p270
V@b5d7a194978b0985fac554c0c3aeda74e0b60e9b6876c68cb3074600d45c11ac
p271
sV57d7e69d
p272
V@a75254092f9cd5475f7174a157d7e69d
p273
sVaada622d
p274
V@ef67e0142890b72f14108f199b89df0250cd17203d209aeb4860634eaada622d
p275
sV7be1cb46
p276
V@@021e51e28a93f9e4eb495948efc6eda8a0fa39212f677257893e11777be1cb46
p277
sVa6d27bce
p278
V@92b8040283203f7cddf8156b859181563e8cc0aaa7b2378f3caeb9eda6d27bce
p279
sV5384eee2
p280
V@5857f0353f0b86bdd274ee6f5b6793fb45e3dbec95a42a0e12f975bb5384eee2
p281
sV44d522bd
p282
V@36995d220707e1bc8611fc713346caee8362d9d114793eb1268b7a7044d522bd
p283
sV3bbf0675
p284
V@@0b8c07e098a15b638c10016fdc6ba8d3d5870685f7e957e4bc7c8cfa3bbf0675
p285
sVb14b026c
p286
V@01d7fae9e7359a7f6bbe5eb86d0a35ee37c31e15c473b4466f041d28b14b026c
p287
sVd9994268
p288
V@dd4736f0be90fced98fa6cd5af396052
p289
sV7c887441
p290
V@f8aaabc1396162b83c3386cd1fe56b72dc168857b09608f39bce71307c887441
p291
sVbb015d0d
p292
V@49d28fae27958cb543b7bc11bb015d0d
p293
sV71df8f13
p294
V@621f106004339c84f5733856772c06b3
p295
sV93281250
p296
V@f3ed53b5b087fb5d7ff5897eee40f0281bc5eaa9e66d923ddd92848d93281250
p297
sV809aef17
p298
V@e25fcc8c8c365d7cdcc5a3ce809aef17
p299
sVe01a4bc9
p300
V@6d13bd31cf3b882b559de540e01a4bc9
p301
sVd40924c2
p302
V@4dd91c5d00b1e6db33d8324ed40924c2
p303
sV4a4c6fa0
p304
V@f480062039fc425f35287c9e1381151c30564f260993022efe1a7faa4a4c6fa0
p305
sV64454ba3
p306
V@be35f9222f0bee4e712f6e00d347eff9
p307
sV9f6e17e5
p308
V@ecc4fdb6965e0baeb559b68a9f6e17e5
p309
sV4bb8568e
p310
V@f42162e4a5510ee528f379855c79b4532624f94da411963a1687e7724bb8568e
p311
sV83daaadb
p312
V@20e135f13ad07d4d99f73d4352c08a72ac37c56d934c25a7f52d2c3083daaadb
p313
sV9d9bd67e
p314
V@59219caa01c9d0ac719fd6529d9bd67e
p315
sVecbe1c42
p316
V@703bdabcea7b5403b7f698875b47ce00
p317
sV874847f8
p318
V@8c9f2d0ba1ad378eb892beb9db89f3d1
p319
sVaf17aa33
p320
V@a351082f1c0bbcff4a6553397938bccad2f4f92154234376e1cb312aaf17aa33
p321
sVb6ae37be
p322
V@@124d784f2c85b135e86f7518202417dc1f6ebe656e1aabd9388b4e0e6de50101
p323
sV64ad076d
p324
V@3f0915766f277c2bccdc3dab694c644128a097703082f0b9d3db3ef964ad076d
p325
sVe6e29e96
p326
V@30c981a5771f8b7c99b733ee4ffb0e4844b60a8d30f49900bc28c20be6e29e96
p327
sVf171711c
p328
V@@b68ca3263341c1a57056468bfa3288cb919dd5047f3c24101e3501e2a6ec7c01
p329
sV1ffba0eb
p330
V@64dd9eeb8e4ce4b7b6e392f31ffba0eb
p331
sV73abff93
p332
V@@795e0ec87821a0a1efbb1b6e568e22890f18fc7d3e5c5e7e2b1b2cd18e6a464c
p333
sV963df08f
p334
V@0d46e9fce0f8db9f3c881ff35e41a2296f46249e5ce6ae999ec02b77963df08f
p335
sV09555f81
p336
V@4708fcd71da291576477367a09555f81
p337
sVc386732d
p338
V@bbeb56f36f7358c22a044d21063e85744ce620ee6f940ff2b61d3d2dc386732d
p339
sVeca9c19d
p340
V@d01017d68a7c849c997ecd9f86e3ef9e958338c3dda154fe3f7da94feca9c19d
p341
sVa4bb14d8
p342
V@@e20ed404e9894202aca338827467082a90f3fd2440a2298cf45200a6990896c5
p343
sVbe809a1f
p344
V@cdd68797e02d21cbb32bd1e3f69f8dd41373e5cdd490dc2fba861346be809a1f
p345
sVe5656cff
p346
V@0727982aa43bf9680ad64a9978f7279b25ed4834cc4de1d58db1cef3e5656cff
p347
sV93529209
p348
V@558f53bd9ea351d4e5ba3710da6804e452be919a2ee69bed42269bed93529209
p349
sVadb013f5
p350
V@94a3d041cdbf68c6bbaa956ff0f33abb30242cdd55107e716d1cc761adb013f5
p351
sV475ff4c9
p352
V@7f98f53692766828019514f51d750e37183ba8a75488817e7349e2b8475ff4c9
p353
sVc958b455
p354
V@8949247cd14647840f0c74e488bee2ea1336eaf7b8ae554f8d0f1c2ec958b455
p355
sV17d83441
p356
V@9884dc379f2686f512f3593f17d83441
p357
sVc7865976
p358
V@d206cb07eb62251009ad1c5ac7865976
p359
sVa95bafc0
p360
V@abfa458eddda0a70ca2c4e9cd4be77e114d5e4c603408d11732362fba95bafc0
p361
sVa5b316b5
p362
V@b3ec5e120a2432b8a97303eb2f1323859808b33b237217e2b34edf66a5b316b5
p363
sVf97c7511
p364
V@2c1beeffc895cd5121c9a893f97c7511
p365
sVf926bc99
p366
V@03e48b56a3d07f37a3f6ef65bc944083558f13f0aecaf3f28fb0dde2f926bc99
p367
sV29f114a0
p368
V@a36e620c39eec49950c930f06eff3f993807872e2afd52ff95d728c02bc4fc5e
p369
sVb590f3cd
p370
V@49abb423330f35ac1de4229bb750e7506dbdd8e8654214b97b2f4784b590f3cd
p371
sV2b218b09
p372
V@f8d4b56d542d8251a419bb9d9b58edf5b1534b2b20ec3ff8d37e13c32b218b09
p373
sV7689420b
p374
V@f8a8d3999ae6dbc9c05b1d7c7689420b
p375
sV53af36e4
p376
V@cc3404ade247ae399d68f6e953af36e4
p377
sV8df526d7
p378
V@4f98728989852f1025b0e0d7c4d905fd64995aea97379595572bb1178df526d7
p379
sV799509ad
p380
V@4fbf7cf0f638ea3b24cf5e5025eac816d2b519aaf44ed5956ca42969799509ad
p381
sV87f46ddc
p382
V@7a8fae2417364f23d7bb2eba0cd5fbd29d84b475ba8d2628e89372cd87f46ddc
p383
sVb419ac84
p384
V@f59720ca6ed76f4e54694218dd3e3b95fae9904e1e1c68e801249fbfb419ac84
p385
sV1abcfde5
p386
V@497faa607194bf3d6c85208291eb0d77fd65727f30ca9c818abd071d1abcfde5
p387
sV38745c62
p388
V@11186d8eb0bc303376d228ef58c8fbeb774463f8980c0f8f6c9fe35138745c62
p389
sV69f60dac
p390
V@d493e1dd754a59b0ef8f8b0e3d0b1dd8cebb1369dee4eaaaa63863a069f60dac
p391
sV9c373c48
p392
V@4fe25afdb217c71081eb50593e3f3a247d656f53de2f06f77ebe68c32f4d3bfa
p393
sVa601284a
p394
V@90bf5360fbdcecc2ca8779a3a601284a
p395
sV9a4cfd59
p396
V@b87e752913e3427587bc3fcea9918c336d5cd16d038fc7cd88135c259a4cfd59
p397
sVb40e1bbc
p398
V@1a9b216d201d4f81230c483977c15729
p399
sVa4045198
p400
V@@d7e131deaebd30d0fa6f602ba4572bac0b705b24df5e70f20046bbad1abc9b5f
p401
sV33ba7a4f
p402
V@4af7f2463fd9f564b01fdf3b3d61bcf440c1c7e057e06edea2b9ae7733ba7a4f
p403
sV710d5137
p404
V@54b66fadd602bff78c570063925b0c80500c4d29967eefa3618d69ae8616db78
p405
sVa88a650d
p406
V@054aa2676a894989e549fc299d69417119943182306ded346888854da88a650d
p407
sV9a13848b
p408
V@4c1a22e780166d6ba2f2c753beee7899657942c377a0a75e5c0ce6f2d9c4c139
p409
sVd6393a42
p410
V@a4a908cd269a4973768153316812b1e5b0e9c2400339ca75969ac7a2d6393a42
p411
sVf30758ad
p412
V@6b7a6ad532d3fd45da9d47f9f30758ad
p413
sV324f270c
p414
V@4b8f335be09bd0fcc745724d0bddd09fec818717d488f885c48cea14324f270c
p415
sV222d90c9
p416
V@524606b7a4532be155bf5a22222d90c9
p417
sV74f0357a
p418
V@254e67849a8d4dfa1249ce1401f6f2b0bdf3eba9e1c758abe40ae99274f0357a
p419
sVc54d901a
p420
V@013995a6e068776ef974a84729d561345bf0559bfc32fff5ea509fe8c54d901a
p421
sVd8bdef54
p422
V@b5bf006257226e1c4769012fd8bdef54
p423
sV919f0f9a
p424
V@e004c09da27e70e12b969bf2919f0f9a
p425
sVd5d5267c
p426
V@1d75aa857b7ae06e9ff4d518d5d5267c
p427
sV71022064
p428
V@@f4ebde90807138d849804e8eb587dbfc6969bad459cbe4134fa5626b1327f51f
p429
sV93a25aed
p430
V@97540a01ee0ef9d79b43334fd71e01de
p431
sVc2616004
p432
V@b4c35ec354fb4fdef12845a7c2616004
p433
sV687ac43c
p434
V@b9e50b1b00cea66fc8f2c6411373206fbf0836415b58f01e7d49c18a687ac43c
p435
sVe3aa0015
p436
V@787aae3b558b96984f5859b3e3aa0015
p437
sVf72bce2a
p438
V@0b257e0e79b8142c3e7b601023b5d14acad2ddd579f098b00caaea13f72bce2a
p439
sV1a7ac1c1
p440
V@2e300ce1e3b9f29dee4c4c451a7ac1c1
p441
sV777a2c7b
p442
V@7ef86d7c60f9ea0a234452f622cec26f
p443
sV0f3128a9
p444
V@0190f1512722b4d2dbad1cc3cc2c8913c210b9ac970a5f46c8812d080f3128a9
p445
sV0eb05924
p446
V@9e3e73f4efdb795cc3af7872c0922533b120cd4c28d5a7aecfef82ee0eb05924
p447
sVff70f850
p448
V@916b524464aa10d89d979605cd6a64a243bcc720fbe2675847275d45ff70f850
p449
sV0c7c2346
p450
V@518533283d88f15df9630fac1afbf6ccfd84dd0357d8f5a168700ffa18805f3e
p451
sVe6fdf974
p452
V@89c1e424906a31547e65ded0cf08f0862a25ff27defb3af18706e54ae341e2b3
p453
sV181847f0
p454
V@417aea6c513d66b6c55cc39d8d9014f86d2b75574e0243706c5062ed181847f0
p455
sV40342cdf
p456
V@20f9e13031d20bf2deef22129d60a31ba01226760e3bf75ed6d07462b748c797
p457
sVb357ce37
p458
V@8eb5c96e3be3d796b2f8c77e6612eeea958ef4800109dee32cceaf11b357ce37
p459
sV20ab9905
p460
V@a72c0ba0e79b3f68d295c75e20ab9905
p461
sVb469b9cb
p462
V@030e4c3fd5498038ad66fb6a507977266052b22e4ac9c498f08b0550b469b9cb
p463
sV15734c54
p464
V@@9f8e7a6efa9fe38cc58527e9a5409911508a3f1c991131838d254702a96a5709
p465
sVd2b133e9
p466
V@5741465e553f0f82155501c560c2af27d5c0e4ac726a61e0ba5e741b2c7d0a31
p467
sV6214bdc6
p468
V@95ded24c56dfd7a4f1e30bde38e8aa0f31136372b939cd10179891206214bdc6
p469
sV7910a784
p470
V@b894155443a9bbc4dfde3aa87910a784
p471
sV3049d026
p472
V@5ab8c5e7f81cddd1d3cbf7a13049d026
p473
sVf3026533
p474
V@e49ebf415cd16d49adbc4faff3026533
p475
sVf51fb0b7
p476
V@6639ae506ab42a512cf10ce7f51fb0b7
p477
sV84f5c1c5
p478
V@b16d4868f44dffb6091a0259bde32ea5285694a779926dbcf8e4f6266318f9bb
p479
sVfba8b40f
p480
V@5f9386ab3684e5cb182a084e70a45c97
p481
sVb9b51379
p482
V@73d37240509f4acb2e9a0d4c68976d0617fb7962f1b97bb9e41f3a3ab9b51379
p483
sV0e200661
p484
V@3b89db10d7261a68883f1d1aa60bd5e45bec37783009652e54d7423d051562b1
p485
sVa53cebd1
p486
V@7ba59b9d14fafe596ce66933a53cebd1
p487
sV5c352223
p488
V@d880876c923ca70d34e7140c5c352223
p489
sV1e307f6d
p490
V@f8f80673534321026463e8211e307f6d
p491
sVa3189d4c
p492
V@471cb3f3b55e891aa076db3aa3189d4c
p493
sVa38f325f
p494
V@adc096784a2bee7e6d04dc6ea38f325f
p495
sVef9e6c01
p496
V@cc2a66dd14b3cd4544f9aa94fe22f659d1efbdb6ef18e4eb707e40edef9e6c01
p497
sVed4ac03e
p498
V@a08044d0a8a54872af7444a9ed4ac03e
p499
sV3040b289
p500
V@01a5a47c3020c4682f62dd7c1c7e5063
p501
sV569e42cb
p502
V@6bc0e83d1fd3bd92400a4771569e42cb
p503
sV6f58ab14
p504
V@62e0f536a23f586b715cb4376f58ab14
p505
sVe45cb44f
p506
V@d9ae02b97b4bb43779abefd34625e51269b9c49d5ce8c397375b68dafb3d1e76
p507
sVfb83b459
p508
V@a25fcedb5346429e62cb41ec38521d25
p509
sV06af8e9e
p510
V@96eef211f3c7075f668cda6465c3916a145f0a2caa67954a3460cc2c06af8e9e
p511
sV32191632
p512
V@a09c9a59eb059c58a94b302d5151096f668a0b65ab6001ad45a6be4932191632
p513
sV79807c6d
p514
V@5f116373e2457530b1be8fc9b62433b1b04ed36818cae624091943eaffa185ec
p515
sVda99c716
p516
V@2d1f3c3acfc046187b71d2c523dff79c23817cb07a9c2ee92dbb6426da99c716
p517
sVef085607
p518
V@74a9b3f757f2c750269f96e1d01ea7c6aa4014732957c08efb5758ece7244bb9
p519
sV4bf74c1e
p520
V@65576a489b18dd31f17a6d5a8b4e62cb786df86b4f5cb5dd4246955f4bf74c1e
p521
sV78ab9e67
p522
V@7b24260fa3df962b77b22bc4cd5c2b72a2876aa21a048e3093411b9e0ba188cc
p523
sV48a9b61e
p524
V@b8b3931ef78dff5d13ef608d661b5bbbd95d0fc78e8930c03d1f553448a9b61e
p525
sV8e83383d
p526
V@7881d2fe86b93e02484e623c99e04e93adae728988a8c5a1ddff8c9c8e83383d
p527
sV88041add
p528
V@948ce4470f8ecc410818d7c4d789ccd794c6951456aed09c9fbe79f388041add
p529
sVfe98324f
p530
V@644a6cd264236ffe58c13e9f704687cdd992ac2b2e015c7d6bdfa672fe98324f
p531
sV48704135
p532
V@717bb00410895549ecca57054d9e2241
p533
sV2e0eedd6
p534
V@2b760636aac5b74121bef2df2e0eedd6
p535
sV88d3ea34
p536
V@ba1962d872ff37f2e7c74e53c21f2587dfe0dfb6bb9b36823b2fad1e88d3ea34
p537
sV12b3e5d3
p538
V@9e16d5b08bb1419f45ae3d7212b3e5d3
p539
sVe0b33da4
p540
V@41b4820bc35c26e63a6e1222a0e61f1a03bbf8df0c49fa26efbcc762e0b33da4
p541
sVfd8314cb
p542
V@60c630258871c8c354ee3427fd8314cb
p543
sV626b35fd
p544
V@062e8d34480b12c27c2393076f3a281fdafeb9126824b943a41c4ecb7362ca88
p545
sV1aec50da
p546
V@685bab49d4f36e9a3d2680c51aec50da
p547
sVae8c9cc5
p548
V@64b99acf2b9767d50e1cce704bb08cf93036790fbab741958293e7b2ae8c9cc5
p549
sV9964a881
p550
V@d3ae4670862a6afd83ac51a0a0388bd2
p551
sV894b9a69
p552
V@e5cc73248713e037f3534b8e31ba92d7b16538c151a08cda7a1cf7da82ec06ec
p553
sVe1c5b4cf
p554
V@c4b794aab68688f26e74205be1c5b4cf
p555
sVff0aa50b
p556
V@8b24bccc83ed15880c357ad2cbda9e43
p557
sV585281ba
p558
V@9670db196c47bb71758cc3b09f1e5a9856745693303fec43ff44eb99585281ba
p559
sVf2b32713
p560
V@511e008dee8a4efc652b6daaf2b32713
p561
sV634383b2
p562
V@806196faa7ec37b3dc180093dd1531849914094beada09dc414952cb634383b2
p563
sVc531f32a
p564
V@8cac17911e2be150b6f1593082a7167382701d7ff1c71f8a7534845cc531f32a
p565
sV54db070a
p566
V@08922c6563126c500d2f6afd7f174539fbaf767896ea3657234b0f6854db070a
p567
sV5a6ee98f
p568
V@8e589d8b836320c87ed005ab5a6ee98f
p569
sV08537e97
p570
V@6623563cb38b600ff1fa5644e15b3e75
p571
sVab14f0e5
p572
V@3ec7eb018392ab09ff09ceb38c56fe40511bf9fc73456d004a65315eab14f0e5
p573
sV8b87f7b9
p574
V@8a5caf635d525550aa5f0bb71d08ca48
p575
sVcc69229b
p576
V@5ed62d12c2d0b4d48aaea7c9a8337676f00a6aa93259af05f31b2fb69fe0a514
p577
sVe7ddb8e0
p578
V@b231b550e87b9b884d04e99fe7ddb8e0
p579
sVc6684c84
p580
V@9062d85a0d2879507c85b449c6684c84
p581
sV3bd8539e
p582
V@4b8ef71fb5ab17d06da786541e7d624a0ed75812e1ff99d730495f9d70d37533
p583
sVabd12567
p584
V@03b5adf5a4846859ebd17c59f53f5e0d83b53d92bd468d76596a1cdaabd12567
p585
sV4eddeac1
p586
V@ffac3cc51dd72f94065d5438588ea9aa2b11101ee724ec8ab177b4654eddeac1
p587
sV1f100cbb
p588
V@f734cb63b387c9e0dc22f344277d81ff17bb35fb11aaaa311462502a1f100cbb
p589
sV1a88837f
p590
V@b9faf23688569da603f02ea21a88837f
p591
sVadbeeb41
p592
V@555b2229a262f3978b365bdc24a7605e
p593
sVff5c7356
p594
V@cd27979fb72165f9d2bacfdfed31e362
p595
sV30057b1f
p596
V@fddfc436d48c6669a3e33709e171eacf
p597
sV8bdb26c2
p598
V@1c5fcf57d7447be7e830e813430ed196ff86965a9cfe472ae39e94c37806aac5
p599
sV96173bba
p600
V@81784a24a35c21dcb743ec9296173bba
p601
sV725396ef
p602
V@8cfd5b047a60b3c0faa4f4d961e40822d74b9391b2a89628d1442f99725396ef
p603
sVe3fd7d5d
p604
V@1cb0cbaa70671cb20329f8c60a31a982e98fc895f797cdfa3ae3e4c4e3fd7d5d
p605
sVe3cd033b
p606
V@1f699e422387b110f8db1f75d3168cb3
p607
sV57a7cce6
p608
V@09bc7f97b31793157bbd4e385e3d716041a80551aea102aac89c7bc757a7cce6
p609
sVf5dfb064
p610
V@a7d1c2bfa1537e1da8e346bfa9a43d4f15331fa4410659acf1966b30f5dfb064
p611
sV5a876f2e
p612
V@84db65ecd97615d43c9b42385a876f2e
p613
sV83b14485
p614
V@6d434ffd1dab9aa1dd59ecae83b14485
p615
sV7dc28653
p616
V@5ec033cf3d098306bb90b9d16cfe99e77c30e3ccb84ce21187c83474fb1dd710
p617
sV8fe6b2c7
p618
V@803b628fc6ea140c6ba64866641984ce0e086edc17b6f128f2ae0d2a8fe6b2c7
p619
sV172a95e0
p620
V@a8b115fb4a6106ad264aaf21999ab49b1080d6abfe8f458df21b4971172a95e0
p621
sVfb5246ea
p622
V@e0b59bc6616d5a1ca2be4ddfb135e1d84f04dbc73aedc04b0eae8880423b8179
p623
sV3c4f34ed
p624
V@29402bd7b83dc23dd792c9fc3c4f34ed
p625
sV5b4caa29
p626
V@fe2455bac959d0e44505bdbbdf6f3fb1
p627
sV96c179d0
p628
V@4ca4b76af3bd3fd65a16b59fb8153aaee8e71f7a20d6a618191bf80b96c179d0
p629
sVa5ac85ae
p630
V@d07215cffb8091c1de610f9ea5ac85ae
p631
sV439bf2f7
p632
V@aa02600077e6e67871a2dfe1439bf2f7
p633
sVb1797bfe
p634
V@624dc5d05e4db5c95097ddadb1797bfe
p635
sVb7d8f8b3
p636
V@9faac875e1e44e4621a821485109dfa54d56f819a948d5011cfe9e37b7d8f8b3
p637
sV266e4957
p638
V@0884103d48ea4d23a58d7fac266e4957
p639
sV0e97458e
p640
V@e1ef831f0b14fc08a276118450658571
p641
sV580ce8ef
p642
V@31cc47c745bf63e2a61830236bfa19ab0c52fdd8ccecc4d9403f5e7c580ce8ef
p643
sV4ea7982f
p644
V@e5ae602e25df4772c45585f24ea7982f
p645
sV7444a783
p646
V@fa46f2c7684b7c262d1a45fe7444a783
p647
sVc9c5c62f
p648
V@ed8aa8b8d71dbe2dbd26a168f4f484e4368b4df3f8e7f9d1193021c11293e2d6
p649
sVc0fd490f
p650
V@88e083f75f465af9438161eac0fd490f
p651
sV7f84b055
p652
V@e6274827a34d5673724042c94a4540057a90bb8bc4695456b059f3127f84b055
p653
sVaaecddb8
p654
V@d66acfc689a98bf2d27ad2a9cc9104bdf96cd93bf50035facf1c169faaecddb8
p655
sVf4aec1b7
p656
V@cf0c3a9692597d30db6ccc2cf4aec1b7
p657
sV3211b27b
p658
V@36fc235ae04b5c53b5acbbb8d32dec73
p659
sV21b0ac01
p660
V@39a4040da55ee8afcdb78f8121f28a902f2a007fa8c21deeb758d49b2f4a4641
p661
sV84e1de94
p662
V@8e5440e53afbcbea688c1a9984e1de94
p663
sV695cdc97
p664
V@930229d7ded56f9557fd73d3174ef7fa
p665
sVd126a847
p666
V@a636746ae296f1790ec0140b7d93ea616fb3bfc3514ca8173740b126d126a847
p667
sVa18504d1
p668
V@@eee52d80eec2ef2dcf05f0821911ca09ffebee082f549c82783370ad57a5c2df
p669
sV525f01c6
p670
V@1227d0e7bcb0bc832a4a4976feac52e1f7223293236c30d668962fc3525f01c6
p671
sV3f887af6
p672
V@99b14cb02871599d988faa97b7ca1ae0
p673
sV0fe3842c
p674
V@482be9df17e52db69be43545444195be425b0d98e432910f15dd31b00fe3842c
p675
sVa99a4333
p676
V@a889f7cf16cd5fffc6775877319960b58e6ebcab3fd752f272102172a99a4333
p677
sVae7d0341
p678
V@a08315c092b7687d018855a885fd2f097ab1f1bb6c844993ef2a8ea8ae7d0341
p679
sVa4568a32
p680
V@955ef9ea60d10611b4becd03ba51704268ef69fa155e0be0790b5c6aa4568a32
p681
sV2b6923c8
p682
V@f371e14a5a7521b7b116335d32d6316524186e18b33732251e7d34742b6923c8
p683
sV4bdd4c5f
p684
V@ad4f5f46c30de8fed01e4b65c0508ffdd9b115c71ac9ef0339f7e9734bdd4c5f
p685
sVba764579
p686
V@63043e6cf0a738b419bc9635c2ef7e3f1ef304d856eebc0cd47622a1ba764579
p687
sVacea673a
p688
V@8ba2f449cc00d6e73e8be8f87df7758f86e4c8cce33ff06a9d324ae6c7b17268
p689
sV311232e0
p690
V@5c1fa1fa3e243036984ca1b3311232e0
p691
sV2e809833
p692
V@092b199c06db33acf2232d31163f335570bb56dca02466c4987856c92e809833
p693
sV809c2140
p694
V@eccff1be74b4eff355857ee3440b58cc3c0ba8e09e17de83f6f4cbd5809c2140
p695
sV4c1ca52a
p696
V@8495ec731ed06697929a5bc787e0c777c987d51183558f8ff7eef6b24c1ca52a
p697
sV26acc3ff
p698
V@78a5213d5b286a420c5556842dfbfe868d08eccb2e148c2b8abe214126acc3ff
p699
sVe442c90b
p700
V@df6429292b710834d09b708cb94634cacefdd838da6d603efe1aeaa8e442c90b
p701
sVabb103c1
p702
V@f2f5554ecbee2389daaedb132b1b31916c09440508b6b336ce9586f785d31a74
p703
sV498e41f1
p704
V@fe75e0c1e8a584667f828a89498e41f1
p705
sVf0a3f69f
p706
V@e2bd02c3ff97f735887f1529f0a3f69f
p707
sV7c3fc83a
p708
V@0cc505bd8bd91928e6b8e3ce3046900fe85a4ccce3fb7aac76015d9c7c3fc83a
p709
sVd81daa2b
p710
V@cd0a27bbe8f9c4dd3928bb1d3fff8876
p711
sV03afe30b
p712
V@0fba66fd9df0221eda9ecedcce3393aaafbd3685e2aeff7b31a371cb03afe30b
p713
sV76ee2c8e
p714
V@e0e62e9beb5c17a2ee4a3d1876ee2c8e
p715
sV7d7351c6
p716
V@@2b8cb18f70ce930669343b29d5274da8872846161720596ab321cedb7d7351c6
p717
sV462d03ee
p718
V@7af9dea5c05f00ee2c277ee2236ead2e
p719
sV5a7c61d4
p720
V@a27affafae9cd738867d2a69880080fbb5a1a92fc3b6bb5364d0448b5a7c61d4
p721
sV73cae023
p722
V@8d8069c3e6b584dc3f996a3c977a1995
p723
sVe1cb5781
p724
V@d06cdc695b00e1d0ec215eb16f1523198a1d36ca5e476b6c45a1113ee1cb5781
p725
sVf7cfcb29
p726
V@dd48150ed4dd84b612f131741e1d29b8889a2446d83acc77404d2f654c215f07
p727
sVe440648e
p728
V@d7e401f3027eb3c3b7bf1347920cd70645b7b229153e0bb3b107cc437140ced6
p729
sV83d153d8
p730
V@2c1b158bb009fcad9feaa8fcc0321379d54891a6d854e49ddd1f2aba83d153d8
p731
sVcd7a8082
p732
V@f4fe700e51eaaf9ee7dfc49e1f70a453
p733
sV21d08722
p734
V@@986a640ca82959d0d6b00cf6fabd903e5b33367d7caf5ec656da9ef84a782ee1
p735
sVac6fc5b7
p736
V@e0b9ec3b01145c80be56d198594a093a3729ac47f291c9edd6854e954cf1b38b
p737
sV12dadf2b
p738
V@0d41b2e1f2bf437fcedd155e22c71d2e54dfbce07bd1451c5ebad33f12dadf2b
p739
sV9d364438
p740
V@4cb7d1fc92d9822f0f26006f9d364438
p741
sV0dbcba6f
p742
V@774b186a34bcfbc2ebdf9a2db9dd9e873621a57200cf708bd8b3c86f0dbcba6f
p743
sV877b2562
p744
V@7cb5740b2e428a0107543ec4e040c921e096b22829867cf7c8511199877b2562
p745
sVeb852711
p746
V@dcfd7b013edf3bc72ab89920e2cb664d6cc2b2f2ef8f0477657476edeb852711
p747
sVa48d8f45
p748
V@910ae5762dc723bac533cbc0d667e80dae5926bebf3682bbae39c2b9a48d8f45
p749
sVb168588e
p750
V@f7d18c385efa8fe594adf827991f5e710a77a00cd4d761011fb27635b168588e
p751
sV4b28259d
p752
V@bcf84c7b33858cb1a1bc41492dbc19100379320115231a4b69fc1c544b28259d
p753
sV4901e0c8
p754
V@863e7a78b6bafedf64619a8c4af36b42
p755
sVe42c2702
p756
V@a1e0e9dc2e749178c45bd654c7bcf467
p757
sVf01b6fb8
p758
V@5212a261991ea1f567cafb1ea9f03ca2124140a51b23c0ef8c74ad34f01b6fb8
p759
sV3d95d607
p760
V@bdd16011bf73677c5ff4ba023d95d607
p761
sVabdde246
p762
V@d27987fa9d446a00fd2edd9bf405c378258443aaba2a638ab232ce3eabdde246
p763
sV00e4d9ec
p764
V@2510365c681dbc097c4f254a7b4472a3080164630ce645fa965b980b00e4d9ec
p765
sVc63725a2
p766
V@dd5b17838d5462f7e733013071a6cc7b61286d9f6c0883e93d288e00c63725a2
p767
sVe9435837
p768
V@886cce81d74c2bb3cba71a05ee71644560cc9caa1ff322876e3dc265e9435837
p769
sV62ea7678
p770
V@3a247e3bde66fd541e4f1ac962ea7678
p771
sV715d41fa
p772
V@2ac7a98a1a6a7a5cfb42c214d678029f
p773
sV747c6a95
p774
V@0dfaf998d368584d637169bc155602151b8997816731891a95bf2354747c6a95
p775
sV77dedef0
p776
V@aebfda11fb3da4b1f8cc0e5624a344f193924210e249d6c469c1c63c77dedef0
p777
sV3f537542
p778
V@15847557b3ee6801bbca5a073f537542
p779
sVeab360b2
p780
V@e894b0693985da75cba65b78eab360b2
p781
sVf275096b
p782
V@b5a3a3bb042e40b4acd47b98f275096b
p783
sVd3a5e06e
p784
V@9f24909c2fe1650d20fba560dd45a452adf7f510e00bbb306519ef18d3a5e06e
p785
sV558148df
p786
V@a7f32b53145c801168256da8f37ad3dc
p787
sVaa5b1a75
p788
V@1d0e6e49f1948967857993e851dedc9a71801c6ee54239b24c8649648cd16cb7
p789
sVd07badba
p790
V@8da34be2f320268f8754894b0e48d040ada710c32f98ca313f0751e4d07badba
p791
sV4398b14f
p792
V@e49f675440b7d347ee3df18568fcc254174c13b4ac3ce82223dead87809b124c
p793
sV1d26fd65
p794
V@556e883da00c73a4ac0b237bcee5648814be0c9c6c919bcfede2b9171d26fd65
p795
sVcc7cdc88
p796
V@e303a431b70585119645d80cc36eae16aa802fa0c1a902ae99617849cc7cdc88
p797
sV77845d0e
p798
V@b86c8f5af05fe7b29ed116587c0ffb7180202de058f4a4dd7bc533a8e7e49279
p799
sV3e74cf54
p800
V@2a02fc2645a89803f31eb0c3902acec9
p801
sV557d5ca6
p802
V@b28e1ac35449ae381fe515e2557d5ca6
p803
sV560f8488
p804
V@89fbb6bd550310ec92db6ec57b1c8f98fcfafa3c680b0e84ab29fc24560f8488
p805
sVfc701a01
p806
V@2291e014e2f092df72a31abcfc701a01
p807
sV2a6f5b94
p808
V@edfb0d2e5fd1f003ff189cc26bf9c28b
p809
sV8747093f
p810
V@@f7d068723f834eb2207a4991257bd085a194ae77b277ad69419435aae63d5a79
p811
sV63f0afd5
p812
V@ce96a96f2e5762639ebf98145b865d4d805c60bb74fe415ce2908c6263f0afd5
p813
sV80de6b75
p814
V@43eadbc042bfc544248dc09980de6b75
p815
sV30b9e5cf
p816
V@49b6baab4d1a42a9772a9ebd30b9e5cf
p817
sV60c003e2
p818
V@f12cd2debc18f7f6cfae07d060c003e2
p819
sVf9fedb28
p820
V@c3ab6722470ccaf8448c2eeef7f4b61411a068874fdb358ac9d4a752f9fedb28
p821
sV383ef75b
p822
V@2bfc534790318c38ff372a0e3c6a4d9433135b0e8fd004d6b66194bb383ef75b
p823
sV64bed63a
p824
V@d66a0fce64ce14c1026b141f342735ac4339ddb9a65ed495c04f09a9262ecc24
p825
sV40bb24f6
p826
V@2db93e87b54200df5bbbc5d3ab2fd1e9929a018e2aa79b6325fcd66040bb24f6
p827
sVd514f37e
p828
V@7f115a00bbdcf7c1fb7467c5159e5b742df48adb2fe2dd9349bc908ed514f37e
p829
sVbc88fabb
p830
V@89bae5af735e2f26fe6b9a7104c185cc2b1f37f0725a2bdf9f65991ebc88fabb
p831
sV2ed0c419
p832
V@1d14a32f13535db1bba4d9512ed0c419
p833
sV0c7c8018
p834
V@f940cbe94f42f3328cfe6038664fe3aa
p835
sV85ab6e99
p836
V@fe0866725ef2edc82a3beef09b0290a0
p837
sVa86139e0
p838
V@d7937a3d96121d00e5923c65ce6ceab707e459768653f52303301da0a86139e0
p839
sVaff9b628
p840
V@a790b56d9d5a5b2ae3911a33528bfb8d7f4e3593545141a1300e556bbd18fcd8
p841
sV3bc3d4a4
p842
V@b3108e1e1ea04a7c45bc21c93bc3d4a4
p843
sV367f4ada
p844
V@9b919d1bad454aef5a3695545499ef6cb2def645971176bfd9773497367f4ada
p845
sV1ef62628
p846
V@88f7ce5ad5e8e53e307285fffdce66171fac4f77c2b978c11e5e4f951ef62628
p847
sVaff593e7
p848
V@8edd3712c4cb9c1f805de6f9aff593e7
p849
sVff0383fd
p850
V@42c9338cab5b61d95de46055bce97467
p851
sVb86fd783
p852
V@48cf2514241fa50f6d9f870fb86fd783
p853
sV70dca2d4
p854
V@4f63d78d594cd4876d4b365538a1cd4ccf6fda90d19cd81af52e8065aabd0faf
p855
sV0c17db2c
p856
V@c6a1bc28dc4ce3aa0ffbbd91af056d8c62838e6e4ad255f6fc96df2118dd2681
p857
sV77a95cdf
p858
V@a3d0ed719574865bcdb7e76b1692ca99644ab851b9e351e199dfda8577a95cdf
p859
sV37d09b6d
p860
V@66b269a58fc8c013a6836290376015190e657868f3571824104ef8ed37d09b6d
p861
sVb7e3071a
p862
V@02861c9722e2187806f4bd709b4ab695a8ed665c0f5fa11666694dafb7e3071a
p863
sV17d4185b
p864
V@f91aa1267058cea94d99dbfbad9e3a690631beaf78b06bd1f3b53cd317d4185b
p865
sVd59936fe
p866
V@7112aaa87ca4d4a1cc322c1eb30d8330d8fc90fc7aa77a2a300c3701d59936fe
p867
sV44abe4e4
p868
V@c03170af70c6eddfb372b1274103910178ba7c90bf5fb821c034c5b6c6fa879f
p869
sVb8b0e580
p870
V@@e665f7e2d9bc8af32037b7cdbaca1357ee8f9641d7a140f723848c05b8b0e580
p871
sV3ca3d2a0
p872
V@b805c3647cf8dd6b7100040f7617b64494b473e9398c88699f34d3be3ca3d2a0
p873
sV9f9009da
p874
V@2df9e8c179c9df1fe38977029f9009da
p875
sV8d689285
p876
V@3b9f447b50bac136d3ae9cce8d689285
p877
sV00fb46c7
p878
V@5ad93d39d57c8f2a2bf8e66e00fb46c7
p879
sV8a090554
p880
V@4b91190b75e732652102ce7b86225fe2041f06073c6a4a353f3ced0f8a090554
p881
sV14d67c79
p882
V@b70a5394de506cae1ba38e1e521d165ec948bef54df5136fc046506114d67c79
p883
sV2fc7e144
p884
V@0fe0138488ff33522267ab182218e378a5583e2abbe59659510cd50d2fc7e144
p885
sV147bce13
p886
V@b654e87b8b7bdc3303ed97107dd1fd64
p887
sV09a53f10
p888
V@a49bac6fb68eeda654e0569b023bea83
p889
sV5d4a5f76
p890
V@3239b55ca8d8f431575072795d4a5f76
p891
sV75229873
p892
V@dafe4f0d80f576f8e05fc65375229873
p893
sV8c005fea
p894
V@85d7287c9974a7d9319e76f988864d552ee97f4db434edf4d993ad9e8c005fea
p895
sV70f0034e
p896
V@1bc206ed1365303a1e80c1982639e30168d0018cc163caf1c66e8cdb70f0034e
p897
sV61b78154
p898
V@ba0efbd1b664b19d4e11463536b5fc0f377d9524ae80447995bddd0861b78154
p899
sV6e09fbe0
p900
V@0f84b95d249125ac935a832015184a972ab336c4d5dd9e29306c042e183861ab
p901
sV5d8b60ea
p902
V@97339f7010a25b124effa978000bb25dde83f62f8ed2a8889d6e61455d8b60ea
p903
sV2dee82c1
p904
V@9da21e9455ad0bc4ff0dd4a45d35683e536f84bdf32bca2844816a532dee82c1
p905
sV40f91c80
p906
V@99de6ec927b8d0c1c00e3c0aee733ed8
p907
sV4aff5369
p908
V@82f95a0e299c3907b96a392d4aff5369
p909
sV24b86cb4
p910
V@41f890932c9305c6eb6d9b8e2f6c0fb16b18a5d5ae4b1ef0290083ff24b86cb4
p911
sV030090d9
p912
V@8714f38c112df0341c7942157315ba33a0773fe641baf1c8a1b8a802030090d9
p913
sV674dcd9e
p914
V@94598913c0a145ea690140edcde6a001d2f1d99f5181467578e13663674dcd9e
p915
sV5ce4f557
p916
V@145a6c5e61a0aba2bbd0ba7f5ce4f557
p917
sV6ead7c8c
p918
V@2f45803f2dafd11c318c35bbd32ff1e7e67128c9bd4ac5073b5761bd6ead7c8c
p919
sV42a07255
p920
V@35151e9e23eaca37bfead03375ad3a55
p921
sV1d1c1a99
p922
V@2592e92574f6e7caf95fc8ac27c37026
p923
sV67837ad7
p924
V@08fe798cca8d32a116c6590563ab81972171b0c0b55b0915ea7938c96ba5042a
p925
sVb6dff95c
p926
V@1e3bcb7ec11f7d23d4cf9b00b6dff95c
p927
sV1f1d3b01
p928
V@4a3dc0d5f4c889017ac7d9145370938ad866082db6239b1503163b7e1f1d3b01
p929
sV37169d78
p930
V@21b78a6f5dba758a37137f9072aa2caa5ff1948e400c3e9284e266f437169d78
p931
sV3e2af391
p932
V@17efd9bb56785d0b696bba985c6f6978b827f7bf585981fccefe381b3e2af391
p933
sVe4a18edb
p934
V@5db3f967d5915c4306a7d752e1f309e7
p935
sV53af8d23
p936
V@96cdbb15c0d1da467d89cc7c037380fd8f6929c469ee367c1c11477253af8d23
p937
sVe803045c
p938
V@ba06ecf07d96c9799889b87a56fc92d30e99437d0df047e43dfb5e5ce803045c
p939
sV8ad55bbe
p940
V@7aade74e10f4e236bdd0fc531775880894154e7dee6df3f824f7f2c98ad55bbe
p941
sV99c9e85c
p942
V@a8dbdc07b00732f9e2ac515a212a53f9acb82d73c2f88cf5b3be375f4f8cb80d
p943
sV13c3671a
p944
V@bf71db6737dad35abfbae0ccafb8233e77c97ff3b32d2a2249c6349113c3671a
p945
sV33b8129c
p946
V@1e5dc4d63c57d981e11aaad833b8129c
p947
sV87a3516d
p948
V@@41fe4727f06100bdfe36423b84752d1539038ac1766c698469a971d587a3516d
p949
sV55f4c193
p950
V@2f155aa99f1f1ec1379c6ee64cf4ec4a9d591f94f30a5ca1cc45dbb40b178aed
p951
sV4556fc6f
p952
V@22d923ab607766b765f9644cd8f4a5e25bc73753a026f5a28156b9754556fc6f
p953
sVacffec35
p954
V@0c19b539ce43a597e23845828a82cf4c56491ead043133c6ab200f46acffec35
p955
sV7d04db70
p956
V@91d1e997a89a971feeeab1417d04db70
p957
sV9bcc8885
p958
V@0b9b0940100467a02200beed7c57de508ca0df8b4b0989ddc6f0b78a9bcc8885
p959
sV41516a50
p960
V@f4b0fce25d0a0592bfc79d6841516a50
p961
sVdca48ab2
p962
V@ef37ed4af61c23e28d7349a69a370ccc37e6e9c99d45e73fb85880e2dca48ab2
p963
sV92f6a37b
p964
V@b5c19403d4a6c04cf7567d4ed8925ef15cdfb9ebb8720dac2b340af0bb206b5d
p965
sV959070ca
p966
V@b1a83b49f23908601a62eee5ad9a0b409b3e36e38f60252ebc355493959070ca
p967
sVee39afff
p968
V@91c9678e68953b6269c3894f3381b01b3f0bab5c5a74468c9409302fee39afff
p969
sV40a2b340
p970
V@8a6929e7085c6880d0e5bf6731322b095a3d0415f14a6077a837953440a2b340
p971
sV5fcc1acb
p972
V@dc55efe548396294249f08e95fcc1acb
p973
sV05252a8b
p974
V@c3504d9e55dd120f39eaa12a05252a8b
p975
sV780d3253
p976
V@b3ee9866397586baa5e10ae3780d3253
p977
sVf0f826cf
p978
V@d7ca06f3d1661477a4b47b4028bc617d
p979
sV07296507
p980
V@6502433184fbe1e37d5f1f4d07296507
p981
sV65095583
p982
V@a3ae7fb60d664cd873be6c146da45a0c5f71b12f08bc9d0a83f9bb0bb0a1095d
p983
sV59d725ca
p984
V@cef48da652caaab11b44de12c765fec6ec64aa54bab261a041266f22508c39eb
p985
sVe63cd7ba
p986
V@7d1f494bd713fd2d3f9c13ad18687c024a2e70481a5c2fc4cd8aa7d6038cf98e
p987
sVbb598891
p988
V@dc220e5bf3d5050824766910bb598891
p989
sV35e48f37
p990
V@3fb4d2fc58be38e382331ee335e48f37
p991
sV99c58f89
p992
V@8dea41cead5246c0086826088a244eca207a2d466cbccd521afa134c99c58f89
p993
sV2af33101
p994
V@7af69f9612817e82b0edd3d22af33101
p995
sV9e016f4c
p996
V@af7c95b81016117b657f091269ab611e0fb9006e74607831d427091d9e016f4c
p997
sVbcfaa8b4
p998
V@3b3ab3177c6a31408113ac8bb663247553823a09f11a2271c3526b20bcfaa8b4
p999
sVf65b1c16
p1000
V@bdf43d5d1e6da31dc6f74a2a8e2887a0498c7b8212466657a7c99f5df65f61ff
p1001
sV3d11b0db
p1002
V@9abe06745978623f00d5f2a03d11b0db
p1003
sV20be4bcd
p1004
V@523dc0c6fc714d66aaa9de966435fcd3491b05a002e226b319b42f7020be4bcd
p1005
sVffd161ab
p1006
V@3f9c5167a6c416d15fced63dd1b466ac542b15db5296f5ac2d12a08780566059
p1007
sV87065297
p1008
V@2aece9a785c2776e374ed3aee15248b95eedcaaad3454df57a55bccf87065297
p1009
sVd9a943a9
p1010
V@a790344258d500e134513477d9a943a9
p1011
sV71c022ab
p1012
V@d1d8a713a8d6f760c876c299eaac8d18d13efa9fc95fa8dac28b8a6371c022ab
p1013
sV69307217
p1014
V@36bbbe9e906a2f392b908080f196cc1164476924e9a429cf639b2d1169307217
p1015
sV141f256e
p1016
V@253e4bbe4b961153d7f926bc141f256e
p1017
sV0d6f7086
p1018
V@959e1d433b880de760acf766769395490c938b1a0b60e7afa77c7e0b0d6f7086
p1019
sVc57306d0
p1020
V@763030a98c22b916090f2b89c57306d0
p1021
sVd43bfda9
p1022
V@f867e9ca96c659bb02a2c0d1d43bfda9
p1023
sVbe6ae753
p1024
V@b3cf9f2057266af14989df4abcf80a5b2df43048aac2b0e84929eb3c7ac83ad5
p1025
sV6cb0ca14
p1026
V@f135e0ff81e55869129f34586cb0ca14
p1027
sV188e680f
p1028
V@f395bec36364067873963cfd82a15a1b
p1029
sV3b3203f7
p1030
V@20bcf51f0596ab5aa69113a5255a95ac0da0f73513421446f3235347974add37
p1031
sV2625c2e3
p1032
V@7e699673e1982ca02e8a97fd6e279a09468c70f06c39908f49bbd1ad2625c2e3
p1033
sV12e50238
p1034
V@ef38d117de128a0ed7b9512a3fd26efcb945e6e3b592b17f401df8040fcb5560
p1035
sVf8333ab9
p1036
V@132d927cfd47d434c1697f9d9f7c7998bf5633ba38cdd19d6a10abbcf8333ab9
p1037
sV200b367c
p1038
V@0f7a7e4447a17efb48612679200b367c
p1039
sV13bd86fd
p1040
V@ca09177d0c627342381c998ee285895b
p1041
sV06a92779
p1042
V@3ca82708326592e3f2a61a2d6bd98d50bc18b96df157b25725cfe8aa06a92779
p1043
sV849d148c
p1044
V@221c35ae1c2c0133a5b0a29b33a6b925803c9fa3ba948c1fe595f53c00a3c771
p1045
sVff65eda2
p1046
V@8159252c619bfcdc48a2194052a47a6aa76f5cd37f4a4cd7d8f9b3a6ee395fc8
p1047
sV1b87f182
p1048
V@a2e91d43a89a3e56bf4dce3b1b87f182
p1049
sVb9f3f727
p1050
V@603888d311532edfdda6018eb9f3f727
p1051
sV897b1779
p1052
V@86670ef7e0acc93830136b029ac70639677ec3a5bbfcc2fcc7523447897b1779
p1053
sV87060d91
p1054
V@689174de833c61f33c55e2af39b0958b831908e38a3005eb32130bb310738d37
p1055
sVdd4e2cce
p1056
V@19582a5a64f2786049ea6215dd4e2cce
p1057
sV2285abea
p1058
V@84cc743e0b811d42cafcb64b2285abea
p1059
sVb84f4472
p1060
V@e58ae78ecbe0966415f22a14881812b543448324ad54c71002c4e454b84f4472
p1061
sV99ff4ea8
p1062
V@@2bb12ae3705b62a04dc379195e70a2f24668f0474e64c212660e9837e827c2fc
p1063
sVc10b975a
p1064
V@a5770f08a5463a9c5c5983efc93a15311a69a07c4b8f2fe6e06764aec10b975a
p1065
sVa1962b78
p1066
V@a8c4b188331d4793bcae1ee64696a199527632d6c6221bbc4ae56d8ea1962b78
p1067
sV21dba56a
p1068
V@8e6793929b2fb6097379c7dc21dba56a
p1069
sV08beed79
p1070
V@@70c36e4edde87512d077cf558a3b5f4bb3ea7178c48eba8112e140a8779d5244
p1071
sVd5af319c
p1072
V@ce92d2272217150e5f2b9f762f351fbeded851ab3e4d18a87783be6dd5af319c
p1073
sV3bbad152
p1074
V@a869e6fc141fd121e9aeb1863bbad152
p1075
sV30e3bb69
p1076
V@691f3effa2646afb4b41304830e3bb69
p1077
sVfad8a7d9
p1078
V@37b4e7c53971d74ec6a26431fad8a7d9
p1079
sV01225a6d
p1080
V@b5447bb286b2472e8d07747df6da2bb3
p1081
sV580293ad
p1082
V@436d0ddebfeafbfd22cf45d28f401ddc5f5e2f8df2305fc889900c05580293ad
p1083
sVa1e2e95d
p1084
V@53be26d572fb76bfa25e1767a1e2e95d
p1085
sVbf495103
p1086
V@4c5011c9b6fe321fd41690f50e4a3d9f4b8259ca716ed52f750d5c3bbf495103
p1087
sV55503ce6
p1088
V@29306a5300113c7ffaff593755503ce6
p1089
sVda3ec29b
p1090
V@e1131aee7bbe7040b3464597da3ec29b
p1091
sV58c3c3c7
p1092
V@d2533aabd0053bd02d61a40b012ec8248886932d3a1dd10449ed469258c3c3c7
p1093
sV1eb014d0
p1094
V@0f5c060e9ef40bef3e1f96a50dff47e5427c718ce27b0ea4e6f4485a432d069d
p1095
sV02dc5565
p1096
V@c1b02a482c67b2e49e0bfe3d85cf4803ca6b0739b5fc99838e2431a502dc5565
p1097
sV5d000cec
p1098
V@e8107cf45ac394badbeb37e571d5cfa269c18c959b8d9a3a40a113a75d000cec
p1099
sVcb6ba301
p1100
V@8922021de4d6b41d2d80580c003a1e1530314a001003ffc0a5694cd320e90da3
p1101
sV485ebd14
p1102
V@f8c06279f92e2be2d3311151485ebd14
p1103
sVadf63f88
p1104
V@8d51a2682c4ff4c33f31049dadf63f88
p1105
sVfb9e5350
p1106
V@0d1059368e451be67b00246ea5a742ceb3b2d38b29531125bc44cc58da4446a7
p1107
sVd6d15343
p1108
V@d682bf21080a6308324eeee09611d6cc
p1109
sV4dd44923
p1110
V@50fe97fc7b35d4e86871a88a268a4f4b11e092f25c92e6d2d440a6514dd44923
p1111
sV825b119a
p1112
V@56ac42f10cdb38bc5c53e397e51fc80384268164c899684f5bf3530a825b119a
p1113
sVfa45889d
p1114
V@48f39bb41f83390a8c546a28cc058bb9efca62f700de4969b02ab1defa45889d
p1115
sV7f721213
p1116
V@a8f44ff12cd9dcbc1f605fa67f721213
p1117
sVc11b9430
p1118
V@e4961d4a8cebae937de6a009e758da973145956edc297a42fb581bcdf9d5072a
p1119
sVb39d2646
p1120
V@a749c7896a8a777f5324940960e93e6434dcbbea6756491b7ec38d8aefab9853
p1121
sV38061c1f
p1122
V@fa41a6dfbcf2ef983c96441138061c1f
p1123
sV92749164
p1124
V@8ed548426877aa74e4a018b9c9db0ecd10783164c6ae759f0f1fe3c592749164
p1125
sV58aa3011
p1126
V@@0e1f88e1b009c6045e67dc2578d993b7c3709c1dc876de6e23bffe1d0ceccf41
p1127
sV4de5c875
p1128
V@a6d91dd5d2c616e3be284e068ba122b655656ea647a1347348bfed8a4de5c875
p1129
sVcbf23083
p1130
V@f2a6a50242cff9941e8dae7805f1681053152dd11b5227bc5fd8265acbf23083
p1131
sV2da7a84b
p1132
V@69ed45401bcc0acff561ffa69255e81e
p1133
sVeb0c900e
p1134
V@e7b4fd3e360c50cd9ede79ecb8ded3002f1b404249136d9688b4a609eb0c900e
p1135
sV844ee9f4
p1136
V@e751ffc926a694cfac7b181f9a644c76
p1137
sV4d1f0368
p1138
V@a2754011cacbf9246bf1056e4d1f0368
p1139
sV6f93d5c2
p1140
V@cdd9b0e550bcacb167149e0797e1639bf36dac3a601a255b00bfef5f6f93d5c2
p1141
sVe646f2c7
p1142
V@d3d9d6ff56fbef12893f98f149a6debf9c76759b94be4991c22a495ee646f2c7
p1143
sVd69e24b4
p1144
V@cadd7198b5dbf6900a103ad2512e93c414075121a647850f74ca74b2d69e24b4
p1145
sV27f49b89
p1146
V@02e44868774da58e6a6438a627f49b89
p1147
sVf1bca4ec
p1148
V@3e4348e6954a56e56e738ecd6b27a62f
p1149
sV548a8fe9
p1150
V@7716af7cd822f6dd9a6f0d22548a8fe9
p1151
sV688bec9c
p1152
V@0fdc8d90d4a9f80f162bf9be538c53657aaeafc6b69372bd7e3cbf8e688bec9c
p1153
sV38ffd5da
p1154
V@680d29b09bd93bea9d8d080d38ffd5da
p1155
sV34a87336
p1156
V@5395e2b2f48a35b1c3a5df3334a87336
p1157
sV9baeb63c
p1158
V@@cdb9ba4e5ac977f3e3c18ab8b9dcd6967b4d20eb528929b3f52a3a209baeb63c
p1159
sV2d281f9e
p1160
V@eb289d08acd2f99455f2dabc2d281f9e
p1161
sV770c431e
p1162
V@21de7f697f2a7f3fadead34360be632a
p1163
sV481cfe41
p1164
V@c732c2f79e953f418c6e66e3481cfe41
p1165
sVafe8c4a3
p1166
V@eec11ae3cf028e63d043d1fef263a696
p1167
sVa6be25f3
p1168
V@2acb2236bc4f756432bb2e3ea6be25f3
p1169
sV3b5aa1c5
p1170
V@1185c7d1a3d0af4ae1c446226b439a7815b45e5c01e514848622b24c13d42f03
p1171
sV216f1a00
p1172
V@387d2daa0a6258da306967c5651ca78787bd89d599c0037b4b78873e216f1a00
p1173
sV0f66ee25
p1174
V@c97721d54cc7b8f9e23f534e56911d7e4cb6db0e056e6b8b5e7b13e40f66ee25
p1175
sVea95fada
p1176
V@487d73da7ac472822ce07511eb48e8b19cc0cad79d6c7e81da0fb626ea95fada
p1177
sV93fd3a5f
p1178
V@4c6cbcfe9b471145c5752cfcc49629d7d595f77dd09b9d1417ae15c093fd3a5f
p1179
sV05193ff2
p1180
V@002a784c1f87b88f995d949405193ff2
p1181
sV61eafec2
p1182
V@60829201b64edfdff4a21aa7f6e4a01c673ec192f81cd0f3f14cba8fe8ceef70
p1183
sV3557396d
p1184
V@9042fce9c1b000079e83eb363557396d
p1185
sV7ef6a0fb
p1186
V@04d96af2a63696eb3814730ae227b3e86488cfa4a0a340e0427ff8052efe87f7
p1187
sVf57ca197
p1188
V@1047a9569bc93c48204b47c5dedee597b6d5319d2860d40191617afef57ca197
p1189
sV214ffd6a
p1190
V@6ef6bb3d012f2453c3ba457525e2e647b5450916292a7085b2f041c3214ffd6a
p1191
sVd56cd7ad
p1192
V@2c4587eb12582117f6b8bee4d56cd7ad
p1193
sV0f542a4d
p1194
V@c7b76b4b37e25f59259b6e400f542a4d
p1195
sV03693d18
p1196
V@bb8c5830d5093566ccf5c8ed03693d18
p1197
sV6b559b22
p1198
V@28cb651152b20506f1fb3fe2308834ae998fb3c81b8a172445a569896b559b22
p1199
sV1361ad70
p1200
V@246dc46732b1f44896b3938a82cf0bee88874fa8a3c6dfe85c5ab5951361ad70
p1201
sV06e8a1b2
p1202
V@d33308cde857fc0908c273fb06e8a1b2
p1203
sV8ac26433
p1204
V@34d6734ee7ebb223b9c838ba8ac26433
p1205
sV2f9cf909
p1206
V@50b2cd6dd2fdce1be29ac5d826180f85
p1207
sVe1d233af
p1208
V@f06d850e7d18a3fa0917f3bb159a5191d676e43f5bf002cd8afabb99e1d233af
p1209
sV0b9b5f57
p1210
V@e4b2473c7957e1cbe36c5069456b36cbc0d75ee6f1030e669477b2e50b9b5f57
p1211
sVa4314c2b
p1212
V@df719dc8b59d0971a7f9e3c29acd5f3f084d864c8bb6455bedac5499a4314c2b
p1213
sVc9c92c5b
p1214
V@88641d4eb24428c52965ab8d47fd6038fcfa67283118cfb0fd59e75ec9c92c5b
p1215
sVbd60ecf7
p1216
V@278d67c383dad70ba343d8b33da8ab9baa5cbe15b343979259343f8de2e65601
p1217
sV9c94eaea
p1218
V@5c72d58b9c8889196ab70e4f191161e11ef0767bc281b747a5e281cc20af2e5d
p1219
sV9ba6324c
p1220
V@eea7ee68db9032108caaa1d29ba6324c
p1221
sV65ce60ac
p1222
V@368334d554259ad60fdcee588be8a161dcd47be5c585c9ab6235cb0665ce60ac
p1223
sVc6b21764
p1224
V@90b97cba3f9b7e7d8d8d16e6c6b21764
p1225
sV0c7e9ec5
p1226
V@cac6c9a681fc3c3e36969084fbd934c0275fe0c5cd36589a4ff2ddd00c7e9ec5
p1227
sV06c11093
p1228
V@aa4f8e2b0f06719693d4132dd41af8deb6a09792df39476bd11db019b2472dc3
p1229
sVc4871a52
p1230
V@34eb1f229301c186abf77650c4871a52
p1231
sV06984dfb
p1232
V@41c266a5ec980fcafa75eec1a8564e7251d8938c96c006ae1b16b11906984dfb
p1233
sV87924be0
p1234
V@@bcbb73e86261f8c8511ca5d84e65c525e1d3542a3fc7cf8f89e7af2d93688dc9
p1235
sV21d49c65
p1236
V@56b6982619df5c471698193b626b343a23d3d82a6732d59653c6946f21d49c65
p1237
sVc1020b9b
p1238
V@b78922e60b66f5f4f95cfbcd4660a75ade628eb3467228cfe24d49c0c1020b9b
p1239
sV450a44cb
p1240
V@5b23e2b58b7b7fd4ef16af13aa6f09bd4100526cbb4019b3f6828e0e88be4db5
p1241
sV55af96c1
p1242
V@58a7d6c65e7f5225b2ec788b55af96c1
p1243
sVeecfdd73
p1244
V@046ea05e094cb91a38afd0e7eecfdd73
p1245
sV1d366370
p1246
V@53cce589f475594a2211ce011d366370
p1247
sV7c2cbdce
p1248
V@48cbb2614ba8732034e296fdd24ab7bae790452a2705bc22f3e938ce7c2cbdce
p1249
sV1db3482f
p1250
V@a070a56db13f9702cc455e5d1db3482f
p1251
sV091275fc
p1252
V@54abfa138d1d8f836757ca7354b2a7d876fc38127814f6905eb53472091275fc
p1253
sV236e561b
p1254
V@a14e8c7ca43bd1eb36ae0cf1bdfd19d6e9e09ecd30d7a8f01141fba0236e561b
p1255
sV6e16ff6a
p1256
V@8e4c9a8d630f82ec6a186c012e67dd81716e52e543ddb8a9ee9b7a866e16ff6a
p1257
sV92238b51
p1258
V@95b90174c23baf228cf259b2ae60816024e894346e781fa83afd462c92238b51
p1259
sV900891c1
p1260
V@fa3d8743d61d2ea8f406fbe4900891c1
p1261
sV1d29651b
p1262
V@98ff1635fcfb682835756c817d82004e31912a7328d7528520b92a5e17ea4c33
p1263
sV65427e15
p1264
V@3db832bbe3bd17240faf0c982746e0d072459f971c9fd3a0000db76965427e15
p1265
sV52a422ce
p1266
V@66e0e030cff6283b06cf63eb4e2093e0ce9f56ccbcbf906c5aee963a52a422ce
p1267
sVe643468e
p1268
V@cfa9314f027c99fabaa317e534ef28cc
p1269
sV8dbbf4c1
p1270
V@0bffb5f69dc80fed42a6b8bc8560aba195423297f288e4ae051529398dbbf4c1
p1271
sV8c72a026
p1272
V@099bf9e3be98a2ef53fea2f28c72a026
p1273
sV7fbd54b0
p1274
V@57f79ed91426a0a32d1832b57fbd54b0
p1275
sV425980e6
p1276
V@bc6b7db0d1e535b234fd18f1d75407d1
p1277
sV12c485dd
p1278
V@d6411bd89cb1fc970225a6312256deea64c879d4fe044b600e94f0eb12c485dd
p1279
sV96b1d035
p1280
V@69a7d4a09ff64853940bc553f1e3f280
p1281
sVc53d1d8b
p1282
V@424d1f20cbbec466a0752529c53d1d8b
p1283
sVcbb72b72
p1284
V@5d052269f5f32b79b19c8534cbb72b72
p1285
sV22da2bef
p1286
V@@7f0d142dc9e2d7613e4a3ac8910b3890bf51bf0475431941ccf7265f9dcd9f5c
p1287
sV2463884b
p1288
V@aad264e7376d1742e6d000758b5dc9819499b09ec268759a7cb07eee2463884b
p1289
sV5e973179
p1290
V@934e0179864b671a3b09bb195e973179
p1291
sV7418baee
p1292
V@f3d7a2f5b159f76e67d048997418baee
p1293
sV456f84c4
p1294
V@f57d31023a751cc651aa99e2c236a3829b66718def708f8570ad4e7a456f84c4
p1295
sVf4b6cb33
p1296
V@086e7e1e466107d046cffd161db2e95fd6c1faa39a063660f37d08e9f4b6cb33
p1297
sV262d2519
p1298
V@83d8501d935f81c41e30e2b023695345c6df5183f21c07e05f9cf785262d2519
p1299
sVe556f5b8
p1300
V@1f890541c6d437b9c67fc539e556f5b8
p1301
sVf3316fc3
p1302
V@c75c995c21a955933847e19e0e40990c
p1303
sV453ba751
p1304
V@92c5745495ecfd40f454f2e1e18c315033061c2ec5f85d5f42342f3ef7ae65a6
p1305
sV3db70557
p1306
V@2e9da30c2e6a912ff7867da33db70557
p1307
sV86c1158e
p1308
V@91b74373b57e4dc3ca278fcad472e550f846b8374d2739f44cafaca286c1158e
p1309
sV7761ea6f
p1310
V@0ece93cdefe47fe0ee43410f2978ea56
p1311
sVfa73b14a
p1312
V@b95e21748d172ea7c7f139b6ff870bd84d08c828e6a35b8c9cbdaca7fa73b14a
p1313
sV6dcf6902
p1314
V@95ec32c1ce731a74c7f052c3eaa20fc263cd248b8ca1b93f94d987f16dcf6902
p1315
sV7ccf7853
p1316
V@a0d4fe615488f045f4cd343f6287987bcc900789f04ce1707d71993e7ccf7853
p1317
sV1c448b77
p1318
V@b6a22061d041786094d3f7e1b78b2a20
p1319
sV26b64a84
p1320
V@f2f741d7cf89c00709b1385526b64a84
p1321
sV40fb325b
p1322
V@b2f86d7a327b5ef26fd71e2c5d2a20e998a87ca57403779dcac2bea240fb325b
p1323
sVd7706ab8
p1324
V@133f3ae106ac939fa665916d6b403106
p1325
sV5d234db8
p1326
V@94bb0d3537daca943cbc812162b6b8a11434cc75c3fdee95447b8652e6f6d107
p1327
sV52ce15a4
p1328
V@49d81184d5b176e60035edf852ce15a4
p1329
sV32858baa
p1330
V@46f8751329d39f8111aacf3b32858baa
p1331
sVe5f161d5
p1332
V@3f6d29cc1d3c38b9bb25f1d9c59ebba4354306bd40e351fb4ac902e36d7c2d97
p1333
sV86d8aabc
p1334
V@c03ca4fc4930966994a040f286d8aabc
p1335
sV254082f1
p1336
V@eb1cb528e245ab7b6b418560254082f1
p1337
sV0200ba72
p1338
V@f003b836dce6ca50d84614390200ba72
p1339
sVa6466e62
p1340
V@861a34eb7fdc01dc2dc9c505c274ca383b3de4fe2bbd281d9e0ff01ea6466e62
p1341
sV0f1bd794
p1342
V@a5cff69d2caa7eb93e6a8fabdeda005c62dfbc9cbc2a1c15a4b52fd63dfc1261
p1343
sV9906458d
p1344
V@c5d4ffedd46abc4ac5fa5382fad9db7e
p1345
sV6856b2c9
p1346
V@3e067f5b175aa2ec8f513ec76856b2c9
p1347
sVb9d9cc9d
p1348
V@9ae9f7fe3f6bbc2106250bd0b9d9cc9d
p1349
sVc06922ab
p1350
V@@364bce6c9d8fe47de3d0ddf805286815c7e61f20aa22e26f4e3d8c5fc06922ab
p1351
sV8a4d6a63
p1352
V@c37b6f7943c867c50fc670329e5bad68
p1353
sVf1a1d067
p1354
V@490cdbc1283c446199c95c8b42c1ad427f9c8e71edede540c904fbfbf1a1d067
p1355
sV43451bdb
p1356
V@39f927af14dde28d908e50f8398804c329f1c0ec40aba7767788183b43451bdb
p1357
sV325b5971
p1358
V@b4ab6e068a22ca58d15cb4cc9da71ccb3f9c28b948a646107032788e325b5971
p1359
sVf7fe6f5c
p1360
V@@fe52b8f7512fbf8850ed58e3e7bfd972192f9e445c34f2418677abc2f1adc990
p1361
sV4677b263
p1362
V@7922b7bb94175254249090d5321d3ea7ab60ad135bbd9402444c978f4677b263
p1363
sVf9547e41
p1364
V@6887559c591aa9151ee859373ab55ca341dc9f926b56163381b9bf7cf9547e41
p1365
sV38b6cbdd
p1366
V@1065951f34c640412df8fe9e0f0929a2d04dc6ccabde00ff993e5a1b38b6cbdd
p1367
sV3797eeab
p1368
V@33fc999f3bdf6b2ec571c34f6ba4795340fc504acfc598f7f1d6ffc53797eeab
p1369
sV164dff91
p1370
V@1fb2415c506ccd2fe20eefe70b6d9b54
p1371
sV388aa826
p1372
V@d98f48c523451d273cd254d7040a19627129d7d055e49cc4521f4e5e388aa826
p1373
sV5e38d27f
p1374
V@93f18c4a1b155d4866f2c72934c25c8f
p1375
sV7e358c53
p1376
V@561711ca8b6a135c39809516e7964b9b75e2ded47f4475b438729fa37e358c53
p1377
sVf8258ca0
p1378
V@90a9d922cb2420513477441bc61a8c69
p1379
sVd3669289
p1380
V@c370c0704e274926af1d955f493e42292c702b71a5bbcac7c5eb6205d3669289
p1381
sV158e194d
p1382
V@4b81e1877f87a35914faa733f67115526ca28a1bc296f11e5aced6fc158e194d
p1383
sV392ce206
p1384
V@ecc919bed2946c1eb1944558855400c3
p1385
sVc9b226a4
p1386
V@59f9ee9d0cb459d9352f91507bbfa06b68e2290a8ff185e38e41845cc9b226a4
p1387
sV3370b622
p1388
V@c9a0f5b0818aa216969230d53370b622
p1389
sV456cee76
p1390
V@c5c2a3637bb663d2fc7b121f456cee76
p1391
sV515ae71c
p1392
V@4fdd1daef9a804cda56396b6925a3e3a26e26524399b28d075aca7d3515ae71c
p1393
sV324e0812
p1394
V@7644ddc5563a3b2de4e0d3207da2b2f50a5e913c603be62abbaca8f5bece8705
p1395
sVd2cdb5a1
p1396
V@a8ae2d7b72d57c3969985d971fbc3b7d69e88c53330d33b1b123c115d2cdb5a1
p1397
sVe03256d9
p1398
V@70b37a067f87d0d9805e67d8e03256d9
p1399
sV42736cc2
p1400
V@d3d4049485c95214bdb16b3842736cc2
p1401
sVb1f6b4e5
p1402
V@399985bc4101399cc36aa47ab92e414b0fe359c0f5bfd5206ba753aab1f6b4e5
p1403
sV1b8ceeec
p1404
V@e86fe806ae6eb3903859e3a4bd8a6747eb4d8556002afd3a212be4db1b8ceeec
p1405
sV433875c2
p1406
V@85ee485742aa7974fd3a36dc433875c2
p1407
sVa0c0b5f6
p1408
V@a65471d6f9eec6bb84fb0969a3fdbe68d69dcd36a63b6acad3b3a41aa0c0b5f6
p1409
sVa5182633
p1410
V@d826041fc971830448927ad0a5182633
p1411
sVc5d19019
p1412
V@@dea41157b2eb679da5870f78261ea972f7d81fa9ecf01f279bd858745e449baa
p1413
sVadd8105f
p1414
V@19e8ececabcd58d7e210f2d4add8105f
p1415
sV516e5e6d
p1416
V@0825c0a1f1f2e0c532c1f51e7f21592fbc0ff6ce8bbd8dc9fc292a8a1678247e
p1417
sVffa1bc24
p1418
V@1327f733720d1dd9a6191840a6bcf140f34688c13e32afdce863f0eeffa1bc24
p1419
sVe434dff5
p1420
V@5779ed6170d9da530426174416af076c979c113215273115733cfe43e434dff5
p1421
sV3e7ff1e4
p1422
V@a02ae4cf28ddc59f0bbc316d3e7ff1e4
p1423
sV6aaac60b
p1424
V@e9f814ffa39d86cf66724bc604bb361721a452053077e2a1c27c5b416aaac60b
p1425
sV6dff84ad
p1426
V@05eacc720e44c1e751cd5a45719b7234e628fa179d79f03e6a8568fc6dff84ad
p1427
sV0f63a705
p1428
V@e6e5cf61b38ae8e11334bbdd6cd74598f8bb14df2f2ea65368a3db6a0f63a705
p1429
sV340ca96c
p1430
V@378ec812b976c59c04c4213fc30bb3c504370a7937e315918e71f4d2340ca96c
p1431
sVb66cbf3f
p1432
V@5dd67693c0e1c3046621886eb66cbf3f
p1433
sV7d0c874d
p1434
V@bcf27c0da5c22b3d9b16e07cf76339addb92eac73660fcc4f94505bd51a1affc
p1435
sV5db9aa60
p1436
V@4f6037af699d203d25513dff5db9aa60
p1437
sV79f7df70
p1438
V@@05cf53506780be769ec08fc753944fef0f278db7b0ae3f5bf927b3eb6ca844c8
p1439
sV1f9facd3
p1440
V@5b9960e24222ac9831d4f5a81f9facd3
p1441
sVd9d0915d
p1442
V@ecd60824e43312cafda2390f7c424e89ad3e644808da22662f7874e4d9d0915d
p1443
sVc26746d1
p1444
V@b60f012f4ede3ac01744539bad8ffa2042fe3183af46b8d66bbbb1e87a022a9d
p1445
sV6dbe4edf
p1446
V@a964d7b35d4828e578e1231bc008d7be8c04f865af07f45cfe2969aa6dbe4edf
p1447
sVcf79a10e
p1448
V@150ac3f98d1ef9844049c43b7298ad7497d9346661b3b8bc947b1e61cf79a10e
p1449
sV35fa6639
p1450
V@02719483bc3f285f638b29a951bda48b17cf2c10846df3452bf2334035fa6639
p1451
sVad4d3e4d
p1452
V@74c1ba85380569a9e156a45d5ee33da8c5d7b89fa39fe8f0928dd4e7ad4d3e4d
p1453
sVe16022fa
p1454
V@57af07240dc7efea82939285e16022fa
p1455
sV505729b5
p1456
V@ff3c6e8f780b0f5f096b6fa5281ebbb533d062133890fc442dad207b505729b5
p1457
sVb2a25a14
p1458
V@@d86f54354ed188a6d21960aaf262f7218f5223e7440364374603d50d2841f5fa
p1459
sV321a0ad7
p1460
V@a427c84deb7b9bbe38db71de321a0ad7
p1461
sV56e02c5d
p1462
V@7922059456151ccfc0a1a32456e02c5d
p1463
sV0a65d6d3
p1464
V@a367785464ed82f31aafd03869cc88b47a69fd26e7a37f17d465e8c69fa60099
p1465
sV7efc887d
p1466
V@364b83236a8ae6987b1d04e67efc887d
p1467
sVd303030e
p1468
V@333cac401fa718063b204c89fdae9487685953406a4195b4c29a04e3d303030e
p1469
sV8968fb86
p1470
V@2b83f8e6435b71670c5373578968fb86
p1471
sV29fd06b7
p1472
V@0856d5875240bde0a602e7e42fa104637f31bac32e800083659b697e29fd06b7
p1473
sV290d3995
p1474
V@93ba0a5deeb12349223f8ff9290d3995
p1475
sVf3d17642
p1476
V@0cea91d1e65abff097a5e1e4f3d17642
p1477
sV4e872e18
p1478
V@6f97d2822cfd3d16dffa3663eba18bea83de2573af6c78303f7913fbce11b221
p1479
sV1f40f2e5
p1480
V@540417d2a9bb188d53de337151061adeaeaa42fdd82c962139d97ad11f40f2e5
p1481
sVf71952e7
p1482
V@debf12d94e6a7a6620415a3bf71952e7
p1483
sV3f73b75a
p1484
V@76abb53514c31b0e600724ef3f73b75a
p1485
sV70ee0b7a
p1486
V@12da0f211cb7ad9f3f5ae6905eb12064050b0c0b30d2b94094d2098170ee0b7a
p1487
sVbb9d60e5
p1488
V@0175b179d9680e42abfadcff9abb3293879892e5e56763b54222e76bbb9d60e5
p1489
sV83fe580a
p1490
V@2cd6b429d86b1eedb0aabee00f6edfc9efbc2b3b2b4a6e2e30e7b7c6ee197512
p1491
sV5b9a6742
p1492
V@e6f39815046c75680a0397ee8842e1d6
p1493
sV2c154c42
p1494
V@1973056127a03ee588532bcdb1f5b0e373e780cab83815a7b053220a2c154c42
p1495
sVf3bd95a1
p1496
V@4dc6bacbe759308a3f8e745ef3bd95a1
p1497
sV9d7f35e7
p1498
V@f460e8a616a1462383ab7187221b3df68be67b693c30943a813c20fa9d7f35e7
p1499
sVa2b4b550
p1500
V@e90b70fce1a4989053cd9f37614bb17ab863023dba4fdeae9653b2a0a2b4b550
p1501
sV32d7f770
p1502
V@09770402d2839da3ba00b2d032d7f770
p1503
sV645b28e4
p1504
V@bab2bfab11514eb36d71e0502f3e044fd330ef24e48e3594de41fcfa645b28e4
p1505
sVf69e818a
p1506
V@b77e71474dd8f3814f1024488eb3ce876db502bad31be32791782e45f69e818a
p1507
sV401866ac
p1508
V@97609d68f470f8ba28775e0809fa9b3dce9d0e6dbef3a123a4fd4ee6b0dcec8c
p1509
sVa0463080
p1510
V@6374b99b6120446d67790c5ca0463080
p1511
sVe30faf1b
p1512
V@836d9bfe2710afb8c9e91307e30faf1b
p1513
sVb7e9cc4e
p1514
V@97b2b56fa3da9e21baaded26ddb540c51ba218f013c72a40d4444015b7e9cc4e
p1515
sV4b825005
p1516
V@d84608753a37e8fe02242fd84b825005
p1517
sV7fd1e3b7
p1518
V@f22c5d9faeb41a9c856cd72d7fd1e3b7
p1519
sV3e86abfa
p1520
V@530add4d45b400687f875660dd35de1720557ffb4a3074d186a006f43e86abfa
p1521
sV1bda6c3c
p1522
V@76d32a96f36f661ed28470a9c1791a49dd58246ca946f7fb029b78a71bda6c3c
p1523
sVac6a558a
p1524
V@ff4835872d7e94aa3eb5e0e8c8511404
p1525
sV3796b5c3
p1526
V@a2e245730e7458e9eff77e953dc7210f193332f820f2fcc49b6cd75f3796b5c3
p1527
sV0f3f9144
p1528
V@0489ff10f4af72c9f142d2be2826dd9d5095720ab9990ea79c5a48ce0f3f9144
p1529
sV1744fe68
p1530
V@6639ae92146de22c1d4ba43e1472ad3e1fb4357601b007193bc1daa71744fe68
p1531
sV070c4827
p1532
V@3a8b6cd119ed4a24d48249e1070c4827
p1533
sVa751aea1
p1534
V@2862d8932c517092b88397d7c58bc265eff9b82b2778acd77502fdb8a751aea1
p1535
sVbfeb0f3b
p1536
V@dfb693e7490df7deeb98ab1418291cbc68fe744408e6902c49b95d73bfeb0f3b
p1537
sVa7ff731a
p1538
V@eeeb3beb6c7acf2538725f3d011d2e881680ed6581fe164450328134a7ff731a
p1539
sV80acb2f3
p1540
V@2c12732016d691df095e06064c9e5f1d
p1541
sV4b239ec0
p1542
V@c57dd19f82fb3a6cb9890e8d3112d9c00dc1295198fef8aa525380214b239ec0
p1543
sV57ef15a8
p1544
V@6c2aafde228171d10ede75a757ef15a8
p1545
sVfb595f5e
p1546
V@0679c9801bebafb38dc7e513a20cb3bc
p1547
sV7643d7a6
p1548
V@4322db9f872680844e4022ad7643d7a6
p1549
sVe7f7ef58
p1550
V@c80356e5227f0ad649fcf9ae1bf907ae3bc32df91e6e36c7c7e4b54ce7f7ef58
p1551
ssS'data'
p1552
(dp1553
g383
g382
sg569
g568
sg757
g756
sg801
g800
sg819
g818
sg1373
g1372
sg767
g766
sg507
g506
sg955
g954
sg119
g118
sg1105
g1104
sg369
g368
sg533
g532
sg763
g762
sg717
g716
sg1317
g1316
sg1363
g1362
sg1069
g1068
sg1527
g1526
sg923
g922
sg1305
g1304
sg795
g794
sg1171
g1170
sg805
g804
sg525
g524
sg373
g372
sg335
g334
sg1547
g1546
sg343
g342
sg225
g224
sg183
g182
sg1007
g1006
sg341
g340
sg355
g354
sg655
g654
sg1223
g1222
sg233
g232
sg263
g262
sg173
g172
sg371
g370
sg495
g494
sg713
g712
sg1381
g1380
sg1139
g1138
sg1231
g1230
sg131
g130
sg99
g98
sg869
g868
sg651
g650
sg307
g306
sg191
g190
sg451
g450
sg23
g22
sg205
g204
sg1523
g1522
sg1249
g1248
sg29
g28
sg281
g280
sg1477
g1476
sg623
g622
sg873
g872
sg1397
g1396
sg665
g664
sg661
g660
sg1207
g1206
sg1125
g1124
sg161
g160
sg1545
g1544
sg1525
g1524
sg1165
g1164
sg1375
g1374
sg699
g698
sg1453
g1452
sg1097
g1096
sg1161
g1160
sg929
g928
sg987
g986
sg1419
g1418
sg797
g796
sg1101
g1100
sg983
g982
sg1049
g1048
sg1257
g1256
sg973
g972
sg1487
g1486
sg1117
g1116
sg1543
g1542
sg1431
g1430
sg1119
g1118
sg1093
g1092
sg1233
g1232
sg1297
g1296
sg1275
g1274
sg111
g110
sg145
g144
sg559
g558
sg45
g44
sg599
g598
sg625
g624
sg1445
g1444
sg509
g508
sg1123
g1122
sg937
g936
sg67
g66
sg293
g292
sg237
g236
sg1295
g1294
sg921
g920
sg249
g248
sg1141
g1140
sg235
g234
sg223
g222
sg177
g176
sg147
g146
sg1291
g1290
sg583
g582
sg85
g84
sg1359
g1358
sg893
g892
sg515
g514
sg1145
g1144
sg769
g768
sg1267
g1266
sg1529
g1528
sg653
g652
sg1159
g1158
sg1177
g1176
sg1037
g1036
sg141
g140
sg417
g416
sg1511
g1510
sg415
g414
sg265
g264
sg861
g860
sg195
g194
sg903
g902
sg103
g102
sg411
g410
sg247
g246
sg1203
g1202
sg701
g700
sg1073
g1072
sg1077
g1076
sg1239
g1238
sg127
g126
sg765
g764
sg789
g788
sg9
g8
sg1293
g1292
sg155
g154
sg519
g518
sg1115
g1114
sg309
g308
sg1015
g1014
sg11
g10
sg1013
g1012
sg401
g400
sg301
g300
sg435
g434
sg1483
g1482
sg637
g636
sg311
g310
sg917
g916
sg13
g12
sg1169
g1168
sg1205
g1204
sg221
g220
sg719
g718
sg1387
g1386
sg19
g18
sg475
g474
sg1151
g1150
sg31
g30
sg437
g436
sg337
g336
sg1179
g1178
sg209
g208
sg927
g926
sg377
g376
sg487
g486
sg739
g738
sg953
g952
sg313
g312
sg1163
g1162
sg539
g538
sg363
g362
sg47
g46
sg1437
g1436
sg915
g914
sg1537
g1536
sg785
g784
sg935
g934
sg781
g780
sg971
g970
sg867
g866
sg1173
g1172
sg57
g56
sg171
g170
sg1219
g1218
sg1325
g1324
sg773
g772
sg941
g940
sg89
g88
sg1229
g1228
sg1133
g1132
sg979
g978
sg809
g808
sg163
g162
sg241
g240
sg1551
g1550
sg459
g458
sg1323
g1322
sg151
g150
sg951
g950
sg601
g600
sg213
g212
sg693
g692
sg863
g862
sg1357
g1356
sg1031
g1030
sg1095
g1094
sg257
g256
sg531
g530
sg1549
g1548
sg725
g724
sg1369
g1368
sg77
g76
sg1225
g1224
sg511
g510
sg669
g668
sg69
g68
sg179
g178
sg1447
g1446
sg1389
g1388
sg733
g732
sg285
g284
sg1539
g1538
sg1071
g1070
sg887
g886
sg1197
g1196
sg833
g832
sg709
g708
sg1335
g1334
sg469
g468
sg59
g58
sg1457
g1456
sg117
g116
sg1331
g1330
sg37
g36
sg83
g82
sg963
g962
sg741
g740
sg21
g20
sg627
g626
sg49
g48
sg1273
g1272
sg749
g748
sg1383
g1382
sg405
g404
sg1059
g1058
sg133
g132
sg547
g546
sg939
g938
sg1085
g1084
sg467
g466
sg1067
g1066
sg1399
g1398
sg723
g722
sg499
g498
sg875
g874
sg885
g884
sg1021
g1020
sg395
g394
sg1449
g1448
sg43
g42
sg387
g386
sg549
g548
sg91
g90
sg439
g438
sg87
g86
sg557
g556
sg821
g820
sg287
g286
sg1361
g1360
sg897
g896
sg965
g964
sg521
g520
sg1333
g1332
sg1427
g1426
sg203
g202
sg1191
g1190
sg1213
g1212
sg367
g366
sg1005
g1004
sg1217
g1216
sg641
g640
sg175
g174
sg517
g516
sg1299
g1298
sg1391
g1390
sg403
g402
sg1091
g1090
sg845
g844
sg877
g876
sg1235
g1234
sg1011
g1010
sg397
g396
sg1113
g1112
sg697
g696
sg217
g216
sg1281
g1280
sg139
g138
sg259
g258
sg291
g290
sg859
g858
sg17
g16
sg609
g608
sg115
g114
sg621
g620
sg849
g848
sg1237
g1236
sg1533
g1532
sg1351
g1350
sg1009
g1008
sg957
g956
sg597
g596
sg1183
g1182
sg1277
g1276
sg479
g478
sg441
g440
sg1111
g1110
sg705
g704
sg1343
g1342
sg353
g352
sg1497
g1496
sg803
g802
sg667
g666
sg159
g158
sg529
g528
sg855
g854
sg1465
g1464
sg1367
g1366
sg79
g78
sg737
g736
sg1083
g1082
sg381
g380
sg991
g990
sg185
g184
sg793
g792
sg27
g26
sg25
g24
sg635
g634
sg1349
g1348
sg157
g156
sg945
g944
sg53
g52
sg695
g694
sg315
g314
sg73
g72
sg629
g628
sg1227
g1226
sg269
g268
sg1109
g1108
sg457
g456
sg1215
g1214
sg751
g750
sg901
g900
sg1379
g1378
sg277
g276
sg1433
g1432
sg465
g464
sg137
g136
sg1017
g1016
sg735
g734
sg1521
g1520
sg1345
g1344
sg1023
g1022
sg389
g388
sg571
g570
sg1491
g1490
sg351
g350
sg463
g462
sg1155
g1154
sg497
g496
sg1401
g1400
sg721
g720
sg1043
g1042
sg379
g378
sg1535
g1534
sg687
g686
sg1245
g1244
sg1189
g1188
sg109
g108
sg553
g552
sg909
g908
sg759
g758
sg279
g278
sg449
g448
sg523
g522
sg1001
g1000
sg245
g244
sg333
g332
sg895
g894
sg689
g688
sg1403
g1402
sg831
g830
sg207
g206
sg1061
g1060
sg319
g318
sg1503
g1502
sg905
g904
sg1195
g1194
sg1467
g1466
sg135
g134
sg1319
g1318
sg685
g684
sg283
g282
sg829
g828
sg825
g824
sg1471
g1470
sg501
g500
sg999
g998
sg919
g918
sg317
g316
sg391
g390
sg493
g492
sg447
g446
sg349
g348
sg1347
g1346
sg63
g62
sg657
g656
sg1271
g1270
sg677
g676
sg251
g250
sg1393
g1392
sg961
g960
sg943
g942
sg581
g580
sg1167
g1166
sg1269
g1268
sg1029
g1028
sg779
g778
sg1493
g1492
sg985
g984
sg857
g856
sg1443
g1442
sg513
g512
sg815
g814
sg1425
g1424
sg1411
g1410
sg1063
g1062
sg1395
g1394
sg673
g672
sg423
g422
sg41
g40
sg643
g642
sg1053
g1052
sg1003
g1002
sg707
g706
sg1337
g1336
sg671
g670
sg455
g454
sg1279
g1278
sg473
g472
sg15
g14
sg393
g392
sg297
g296
sg565
g564
sg39
g38
sg1407
g1406
sg461
g460
sg607
g606
sg613
g612
sg1531
g1530
sg1311
g1310
sg679
g678
sg385
g384
sg1153
g1152
sg847
g846
sg1065
g1064
sg1377
g1376
sg881
g880
sg603
g602
sg75
g74
sg1455
g1454
sg165
g164
sg433
g432
sg575
g574
sg745
g744
sg611
g610
sg1283
g1282
sg345
g344
sg1143
g1142
sg675
g674
sg331
g330
sg1211
g1210
sg1055
g1054
sg121
g120
sg681
g680
sg1303
g1302
sg645
g644
sg81
g80
sg1315
g1314
sg51
g50
sg649
g648
sg1247
g1246
sg1181
g1180
sg555
g554
sg361
g360
sg1089
g1088
sg1265
g1264
sg799
g798
sg1505
g1504
sg1193
g1192
sg1175
g1174
sg573
g572
sg995
g994
sg7
g6
sg365
g364
sg295
g294
sg1157
g1156
sg197
g196
sg491
g490
sg181
g180
sg1463
g1462
sg65
g64
sg551
g550
sg879
g878
sg843
g842
sg631
g630
sg303
g302
sg561
g560
sg359
g358
sg35
g34
sg443
g442
sg1087
g1086
sg1417
g1416
sg421
g420
sg981
g980
sg1127
g1126
sg419
g418
sg1341
g1340
sg755
g754
sg997
g996
sg153
g152
sg1263
g1262
sg1129
g1128
sg409
g408
sg853
g852
sg123
g122
sg189
g188
sg375
g374
sg969
g968
sg1131
g1130
sg1371
g1370
sg1261
g1260
sg715
g714
sg5
g4
sg1199
g1198
sg1309
g1308
sg267
g266
sg947
g946
sg1081
g1080
sg1057
g1056
sg1035
g1034
sg1517
g1516
sg1045
g1044
sg93
g92
sg1259
g1258
sg683
g682
sg787
g786
sg1473
g1472
sg1509
g1508
sg485
g484
sg1499
g1498
sg1051
g1050
sg193
g192
sg231
g230
sg1099
g1098
sg1253
g1252
sg425
g424
sg169
g168
sg989
g988
sg975
g974
sg1041
g1040
sg1241
g1240
sg33
g32
sg1485
g1484
sg835
g834
sg691
g690
sg743
g742
sg1481
g1480
sg1339
g1338
sg977
g976
sg899
g898
sg827
g826
sg1429
g1428
sg105
g104
sg889
g888
sg107
g106
sg771
g770
sg663
g662
sg1121
g1120
sg325
g324
sg1515
g1514
sg577
g576
sg329
g328
sg1289
g1288
sg1461
g1460
sg527
g526
sg129
g128
sg489
g488
sg1201
g1200
sg931
g930
sg101
g100
sg1353
g1352
sg261
g260
sg959
g958
sg949
g948
sg1365
g1364
sg545
g544
sg865
g864
sg841
g840
sg593
g592
sg275
g274
sg1451
g1450
sg1107
g1106
sg967
g966
sg1147
g1146
sg807
g806
sg823
g822
sg647
g646
sg563
g562
sg813
g812
sg471
g470
sg321
g320
sg933
g932
sg619
g618
sg729
g728
sg125
g124
sg483
g482
sg871
g870
sg1149
g1148
sg1137
g1136
sg1435
g1434
sg907
g906
sg481
g480
sg1385
g1384
sg453
g452
sg211
g210
sg837
g836
sg1413
g1412
sg305
g304
sg747
g746
sg1495
g1494
sg1251
g1250
sg783
g782
sg587
g586
sg1355
g1354
sg811
g810
sg1209
g1208
sg615
g614
sg1313
g1312
sg253
g252
sg149
g148
sg323
g322
sg1329
g1328
sg883
g882
sg585
g584
sg113
g112
sg639
g638
sg1135
g1134
sg537
g536
sg711
g710
sg1415
g1414
sg1513
g1512
sg243
g242
sg271
g270
sg1421
g1420
sg215
g214
sg1501
g1500
sg427
g426
sg357
g356
sg839
g838
sg595
g594
sg431
g430
sg589
g588
sg1103
g1102
sg1047
g1046
sg339
g338
sg1079
g1078
sg327
g326
sg1459
g1458
sg541
g540
sg1221
g1220
sg1039
g1038
sg913
g912
sg761
g760
sg633
g632
sg1285
g1284
sg911
g910
sg891
g890
sg187
g186
sg1187
g1186
sg1075
g1074
sg1489
g1488
sg753
g752
sg1321
g1320
sg1541
g1540
sg659
g658
sg1327
g1326
sg61
g60
sg239
g238
sg1185
g1184
sg1439
g1438
sg617
g616
sg229
g228
sg993
g992
sg97
g96
sg535
g534
sg731
g730
sg1469
g1468
sg605
g604
sg567
g566
sg71
g70
sg1475
g1474
sg299
g298
sg1479
g1478
sg429
g428
sg1307
g1306
sg219
g218
sg579
g578
sg1423
g1422
sg1301
g1300
sg199
g198
sg727
g726
sg445
g444
sg407
g406
sg1027
g1026
sg851
g850
sg1019
g1018
sg703
g702
sg1409
g1408
sg273
g272
sg1255
g1254
sg791
g790
sg1243
g1242
sg413
g412
sg777
g776
sg1507
g1506
sg347
g346
sg55
g54
sg167
g166
sg1033
g1032
sg1441
g1440
sg503
g502
sg543
g542
sg399
g398
sg1287
g1286
sg95
g94
sg1025
g1024
sg817
g816
sg1405
g1404
sg591
g590
sg143
g142
sg477
g476
sg227
g226
sg505
g504
sg201
g200
sg1519
g1518
sg255
g254
sg775
g774
sg925
g924
sg289
g288
ssb(iwxpy.utils.puid_map
TwoWayDict
p1554
(dp1555
g2
(dp1556
g404
I788390981
sg1408
I2073689416
ssg1552
(dp1557
I2073689416
g1408
sI788390981
g404
ssb(iwxpy.utils.puid_map
TwoWayDict
p1558
(dp1559
g2
(dp1560
g6
V\u8d75\u6653\u5a1f
p1561
sg1162
V\u5b81\u5b81\u59d0
p1562
sg794
V\u5218\u6653\u6797
p1563
sg798
V\u8d75\u5a77
p1564
sg68
V\u738b\u5bb6\u5174
p1565
sg802
V\u623f\u4e1c
p1566
sg918
V\u767d\u660e\u4eae
p1567
sg804
V\u51af\u71d5\u8f89
p1568
sg1494
V\u5218\u589e\u7136
p1569
sg78
V\u674e\u4e7e\u5764
p1570
sg26
V\u7f8e
p1571
sg1176
V\u738b\u5360\u9e4f
p1572
sg750
V\u9ad8\u9732\u9732
p1573
sg1182
V\u677e
p1574
sg182
V\u7956\u68a6\u6708
p1575
sg410
V\u738b\u68a6\u5f71
p1576
sg1486
V\u738b\u6c38\u6069
p1577
sg414
V\u827e\u739b
p1578
sg820
V\u5f20\u57f9\u5ddd
p1579
sg822
V\u5927\u7237
p1580
sg36
V\u9648\u603b
p1581
sg452
V\u5f6d\u59d0\u59d0
p1582
sg42
V\u5b9d\u8d1d
p1583
sg48
V\u738b\u54f2
p1584
sg1198
V\u5f20\u70af
p1585
sg430
V\u674e\u5a1c
p1586
sg52
V\u963f
p1587
sg838
V\u5218\u601d\u6210
p1588
sg840
V\u6bd5\u51ef \u65b0
p1589
sg604
V\u5584\u6797\u963f\u6587
p1590
sg1206
V\u9648\u6cbc\u65ed
p1591
sg846
V\u8f89\u714c
p1592
sg858
V\u8881\u4e9a\u5a1f
p1593
sg1294
V\u7530\u6c38\u660e
p1594
sg682
V\u5510\u7eaf\u6cfd
p1595
sg442
V\u4e16\u4f1f
p1596
sg444
V\u534e\u8c6b\u6863\u6848\u5458
p1597
sg1072
V\u5b87\u8273\u56f0
p1598
sg1216
V\u4fca\u4e3d\u59d0
p1599
sg450
V\u9ad8\u660e
p1600
sg1218
V\u8463\u535a
p1601
sg84
V\u7239
p1602
sg854
V\u9648\u5c0f\u827a
p1603
sg856
V\u97e9\u68a6\u6210
p1604
sg456
V\u5218\u6d0b
p1605
sg462
V\u738b\u4e3d
p1606
sg862
V\u5f20\u7b11
p1607
sg88
V\u738b\u5411\u9633
p1608
sg1004
V\u5e38\u7956\u8d24
p1609
sg670
V\u8d75\u6d77\u6ee8
p1610
sg868
V\u56fd\u57ce
p1611
sg402
V\u674e\u6d77\u5cf0
p1612
sg548
V\u5e38\u4fca\u9e4f
p1613
sg478
V\u5fd7\u6148\u5976\u5976
p1614
sg314
V\u6797\u73ca\u73ca
p1615
sg480
V\u6ee1\u59d0
p1616
sg1328
V\u8d75\u5fd7\u542f
p1617
sg484
V\u5317\u822a\u79c0\u79c0
p1618
sg886
V\u9633
p1619
sg102
V\u96c4
p1620
sg104
V\u5f20\u4e9a\u661f
p1621
sg106
V\u9759
p1622
sg496
V\u5218\u8f89
p1623
sg1174
V\u738b\u7231\u534e
p1624
sg112
V\u9ad8\u67f3
p1625
sg1252
V\u97e9\u5b59\u6b66
p1626
sg114
V\u90d1\u6676\u6676
p1627
sg306
V\u674e\u5efa\u519b
p1628
sg894
V\u7126\u6c38\u6052
p1629
sg1012
V\u5218\u6d2a\u5ddd\u7238
p1630
sg506
V\u5468\u6db5
p1631
sg900
V\u5f20\u654f
p1632
sg508
V\u5218\u53a6
p1633
sg902
V\u5c39\u6d01
p1634
sg128
V\u6c88\u822a\u5b87
p1635
sg130
V\u6c5f\u6cfd
p1636
sg514
V\u674e\u4f1f\u99a8
p1637
sg1276
V\u6e29\u82e5\u6960
p1638
sg1064
V\u5b9d\u4e3d\u6e90
p1639
sg518
V\u5b8b\u8001\u677f
p1640
sg138
V\u5415\u57f9
p1641
sg520
V\u7238\u7238
p1642
sg1066
V\u59d0
p1643
sg528
V\u90ed\u5fae\u51e4
p1644
sg1282
V\u9c81\u68ee\u742a
p1645
sg92
V\u8881\u5764\u5764
p1646
sg148
V\u5415\u8fbe
p1647
sg924
V\u68ee
p1648
sg926
VSarah
p1649
sg928
V\u8054\u548c\u5229\u6cf0
p1650
sg154
V\u4f59\u98de
p1651
sg544
V\u8881\u521a
p1652
sg552
V\u6743\u4e91\u4ee4
p1653
sg166
V\u5415\u79cb\u6bc5
p1654
sg608
V\u5468\u4e3d
p1655
sg1304
V\u5415\u6653
p1656
sg938
V\u9648\u660c\u4fca
p1657
sg160
V\u798f
p1658
sg174
V\u66f9\u6587\u5f3a
p1659
sg556
V/\u5e05
p1660
sg942
V\u7a9f\u7abf
p1661
sg976
V\u5efa\u5382
p1662
sg952
V\u8f69\u865a
p1663
sg564
V\u98de\u7fd4
p1664
sg188
V/\u817e
p1665
sg1318
V\u534e\u59d0
p1666
sg628
V\u674e\u5e73\u5e73
p1667
sg190
V\u7530\u6210\u5bb6
p1668
sg192
V\u8d3a\u7ea2\u5e05
p1669
sg964
V\u96f7\u5ead
p1670
sg1240
V\u65ed\u5ead
p1671
sg1326
V\u77f3\u6625\u6656
p1672
sg578
V\u8f69\u7559\u8f89
p1673
sg50
V\u98de\u884c\u5458\u8212\u514b
p1674
sg582
V\u90d1\u9752
p1675
sg1332
V\u767d\u54e5
p1676
sg982
V\u95ef
p1677
sg200
V\u738b\u5c0f\u6167
p1678
sg984
V\u5218\u5143\u9e4f
p1679
sg1118
V\u738b\u6653\u654f
p1680
sg1124
V\u4e9a\u5cf0
p1681
sg990
V\u97e9\u5251
p1682
sg790
V\u738b\u771f\u771f
p1683
sg1366
V\u5f90\u76f8\u9047
p1684
sg1170
V\u5f20\u68ee
p1685
sg598
V\u4e1c\u54e5
p1686
sg996
V\u6768\u601d\u5029\u73ed\u4e3b\u4efb
p1687
sg602
V\u73b0\u4f1f
p1688
sg1000
V\u5317\u822a\u5434\u5b5f\u5176
p1689
sg1300
V\u86cb\u86cb
p1690
sg224
V\u6731\u65b0\u559c\uff01
p1691
sg1226
V\u5b5f\u5b9d\u4eae
p1692
sg1478
V\u7ea2\u5c0f\u6885
p1693
sg1006
V\u660e\u54e5
p1694
sg226
V\u5f20\u4e9a\u840d
p1695
sg616
V\u725b\u8d60\u838e
p1696
sg618
V\u6731\u79cb\u82b3
p1697
sg228
V\u9648\u7acb
p1698
sg232
V\u51af\u5112
p1699
sg236
V\u4e8c\u513f
p1700
sg622
V\u5218\u4e9a
p1701
sg1316
V\u5ac2\u5b50
p1702
sg416
V\u9676\u745e
p1703
sg1382
V\u4e01\u6811\u548c
p1704
sg634
V\u9ec4\u52c7
p1705
sg250
V\u4fde\u6fa4\u65b0
p1706
sg1378
V\u674e\u6668
p1707
sg136
V\u7530\u5a77\u5a77
p1708
sg1024
V\u65b9\u5706\u56fe\u6587
p1709
sg630
V\u80e1\u661f\u4eae
p1710
sg1384
V\u5468\u8001\u5f1f
p1711
sg1348
V\u5bab\u7eea\u5b9d
p1712
sg1030
V\u7693\u7693
p1713
sg1032
V\u745e\u4e3d
p1714
sg264
V\u6b23\u5b87
p1715
sg266
V\u8d3a\u4e9a\u4e3d
p1716
sg1034
V\u5f20\u5c0f\u6676
p1717
sg268
V\u6f58\u7ecf\u7406\u82f1\u53ef\u745e
p1718
sg1394
V\u5a18
p1719
sg270
V\u4e25\u767b\u95f3
p1720
sg272
V\u707f\u9633
p1721
sg274
V\u4ed8\u4e39
p1722
sg1402
V\u7ea2\u53cc\u559c\u98ce\u6247\u72d7
p1723
sg660
V\u9a6c\u5bff\u7965
p1724
sg1506
V\u5218\u6d2a\u5ddd
p1725
sg1322
V\u59dc\u8d5f
p1726
sg282
V\u6587\u5a31\u7ecf\u7406
p1727
sg1046
V\u5218\u68a6\u9e3d
p1728
sg1416
V\u5434\u9e4f\u98de
p1729
sg1048
V\u5468\u6d0b\u6d0b
p1730
sg294
V\u771f
p1731
sg576
V\u535a
p1732
sg1050
V\u5362\u4f1f
p1733
sg674
V\u90ed\u99a8
p1734
sg646
V\u5f20\u95ea\u95ea
p1735
sg1052
V\u51af\u7389\u8d85
p1736
sg1054
V\u4f73\u5229
p1737
sg1424
V\u5b5f\u5e05\u9886
p1738
sg1428
V\u5f20\u5b87
p1739
sg1392
V\u5b59\u8d1d\u8d1d
p1740
sg1058
V\u5c0f\u4f26
p1741
sg694
V\u857e\u7389\u6625
p1742
sg1434
V\u5b5f\u73cd
p1743
sg134
V\u5f20\u7acb\u9759
p1744
sg1538
V\u9ec4\u4e9a\u6960
p1745
sg696
V\u5218\u5c0f\u5c0f
p1746
sg1264
V\u5458\u5de5
p1747
sg122
V\u674e\u5e78\u8fd0
p1748
sg1420
V\u5f20\u7559\u5370
p1749
sg702
V\u5415\u8d5e
p1750
sg956
V\u94b1\u749f
p1751
sg648
V\u4e2a\u5b50
p1752
sg806
V\u5f90\u5e7f\u5f3a
p1753
sg1452
V\u66fe\u5782\u9f99
p1754
sg1254
V\u7115\u59d0
p1755
sg710
V\u5c0f\u5f3a
p1756
sg1074
V\u8d75\u660e\u661f
p1757
sg320
V\u5f20\u8425\u8f89
p1758
sg1456
V\u6c5f\u6587\u827a
p1759
sg720
V\u82cf
p1760
sg278
V\u738b\u534e\u9c9c
p1761
sg1464
V\u6d69
p1762
sg1080
V/\u96c4
p1763
sg728
V\u674e\u8d85
p1764
sg1088
V\u9f99\u54e5
p1765
sg732
V\u961f\u957f
p1766
sg1086
V\u7115\u7115
p1767
sg730
V\u9ad8\u5360\u4e0a
p1768
sg1090
V\u8096\u9999\u5170
p1769
sg736
V\u5b5f\u6d69
p1770
sg1480
V\u9093\u5efa\u534e
p1771
sg1096
V\u5c0f\u9648\u5b87
p1772
sg346
V\u9ad8\u6f47\u6f47
p1773
sg1100
V\u674e\u6960
p1774
sg1496
V\u9a6c\u624d\u65fa
p1775
sg348
V\u80e1\u632f\u7118
p1776
sg1498
V\u9676\u96e8\u6674
p1777
sg1106
V\u8273\u6653
p1778
sg752
V\u9b4f\u4e9a\u4f1f
p1779
sg754
V\u90d1\u5c0f\u96c5
p1780
sg1112
V\u5e2d\u9053\u5764
p1781
sg1114
V\u6881\u57f9\u535a
p1782
sg998
V\u6bdb\u6167
p1783
sg1092
V\u66f9\u5e05
p1784
sg366
V\u8499\u8499
p1785
sg986
V\u5927\u6960
p1786
sg1120
V\u80e1\u79d1\u8fbe
p1787
sg762
V\u9093\u5c0a\u4e9a
p1788
sg1488
V\u5415\u78ca
p1789
sg368
V\u667a\u6167
p1790
sg586
V\u7f57\u6e90
p1791
sg766
V\u8001\u677f\u5a18
p1792
sg768
V\u5218\u6c38\u5f3a
p1793
sg1128
V\u6768\u5149
p1794
sg370
V\u82d7\u5b50
p1795
sg372
V\u9ec4\u660e\u5149
p1796
sg1534
V\u5218\u6587\u5143
p1797
sg1132
V\u54e5
p1798
sg1536
V\u6881\u4ed8\u529b
p1799
sg374
V\u4ed8\u6cbb\u8d85
p1800
sg376
V\u5f20\u514b\u4e0e
p1801
sg776
V\u5468\u9716\u5ddd
p1802
sg780
V\u6768\u7ef4\u97ec
p1803
sg726
V<span class="emoji emoji1f48d"></span>healer\u738b\u677e\u8d3a
p1804
sg1154
V\u859b\u4fca\u8d85
p1805
sg568
V\u9648\u8d85
p1806
sg784
V\u8def\u7eea\u53cb\u73ed\u4e3b\u4efb
p1807
ssg1552
(dp1808
g1707
g1378
sg1649
g926
sg1806
g568
sg1641
g138
sg1730
g1048
sg1752
g648
sg1720
g270
sg1688
g602
sg1698
g228
sg1635
g128
sg1562
g1162
sg1651
g154
sg1719
g1394
sg1691
g224
sg1571
g26
sg1716
g266
sg1570
g78
sg1597
g444
sg1768
g730
sg1671
g1240
sg1787
g1120
sg1715
g264
sg1737
g1054
sg1678
g200
sg1689
g1000
sg1601
g1218
sg1637
g514
sg1663
g952
sg1770
g736
sg1706
g250
sg1650
g928
sg1603
g854
sg1624
g1174
sg1568
g804
sg1647
g148
sg1589
g840
sg1741
g1058
sg1694
g1006
sg1760
g720
sg1602
g84
sg1578
g414
sg1756
g710
sg1654
g166
sg1732
g576
sg1699
g232
sg1695
g226
sg1745
g1538
sg1595
g682
sg1612
g402
sg1575
g182
sg1713
g1030
sg1793
g768
sg1564
g798
sg1639
g1064
sg1765
g1088
sg1797
g1534
sg1645
g1282
sg1757
g1074
sg1634
g902
sg1621
g104
sg1607
g862
sg1728
g1046
sg1773
g346
sg1717
g1034
sg1638
g1276
sg1627
g114
sg1611
g868
sg1574
g1182
sg1580
g822
sg1600
g450
sg1758
g320
sg1583
g42
sg1590
g604
sg1803
g780
sg1721
g272
sg1738
g1424
sg1631
g506
sg1743
g1434
sg1702
g1316
sg1582
g452
sg1724
g660
sg1746
g696
sg1744
g134
sg1684
g1366
sg1674
g50
sg1573
g750
sg1661
g942
sg1636
g130
sg1750
g702
sg1804
g726
sg1740
g1392
sg1784
g1092
sg1754
g1452
sg1665
g188
sg1619
g886
sg1722
g274
sg1657
g938
sg1586
g430
sg1599
g1216
sg1733
g1050
sg1587
g52
sg1734
g674
sg1604
g856
sg1620
g102
sg1736
g1052
sg1759
g1456
sg1664
g564
sg1585
g1198
sg1701
g622
sg1723
g1402
sg1610
g670
sg1704
g1382
sg1622
g106
sg1710
g630
sg1680
g1118
sg1640
g518
sg1800
g374
sg1766
g732
sg1672
g1326
sg1729
g1416
sg1739
g1428
sg1576
g410
sg1762
g1464
sg1613
g548
sg1727
g282
sg1673
g578
sg1692
g1226
sg1572
g1176
sg1687
g996
sg1628
g306
sg1594
g1294
sg1711
g1384
sg1667
g628
sg1693
g1478
sg1788
g762
sg1708
g136
sg1598
g1072
sg1774
g1100
sg1799
g1536
sg1763
g1080
sg1796
g372
sg1630
g1012
sg1658
g160
sg1632
g900
sg1785
g366
sg1584
g48
sg1753
g806
sg1592
g846
sg1792
g766
sg1563
g794
sg1769
g1090
sg1805
g1154
sg1682
g990
sg1697
g618
sg1772
g1096
sg1755
g1254
sg1653
g552
sg1781
g1112
sg1668
g190
sg1569
g1494
sg1742
g694
sg1655
g608
sg1605
g456
sg1567
g918
sg1581
g36
sg1789
g1488
sg1801
g376
sg1751
g956
sg1646
g92
sg1652
g544
sg1644
g528
sg1696
g616
sg1712
g1348
sg1675
g582
sg1798
g1132
sg1748
g122
sg1683
g790
sg1690
g1300
sg1642
g520
sg1677
g982
sg1780
g754
sg1794
g1128
sg1617
g1328
sg1725
g1506
sg1625
g112
sg1588
g838
sg1614
g478
sg1626
g1252
sg1771
g1480
sg1593
g858
sg1807
g784
sg1705
g634
sg1670
g964
sg1790
g368
sg1685
g1170
sg1629
g894
sg1662
g976
sg1795
g370
sg1749
g1420
sg1700
g236
sg1747
g1264
sg1731
g294
sg1577
g1486
sg1669
g192
sg1714
g1032
sg1709
g1024
sg1679
g984
sg1656
g1304
sg1616
g480
sg1565
g68
sg1686
g598
sg1783
g998
sg1666
g1318
sg1681
g1124
sg1659
g174
sg1703
g416
sg1591
g1206
sg1623
g496
sg1761
g278
sg1778
g1106
sg1726
g1322
sg1660
g556
sg1782
g1114
sg1775
g1496
sg1676
g1332
sg1643
g1066
sg1618
g484
sg1802
g776
sg1579
g820
sg1791
g586
sg1786
g986
sg1606
g462
sg1596
g442
sg1608
g88
sg1566
g802
sg1615
g314
sg1767
g1086
sg1777
g1498
sg1633
g508
sg1764
g728
sg1609
g1004
sg1648
g924
sg1735
g646
sg1561
g6
sg1779
g752
sg1718
g268
sg1776
g348
ssb(iwxpy.utils.puid_map
TwoWayDict
p1809
(dp1810
g2
(dp1811
g4
(V\u5c0f\u9ed1
p1812
I2
V\u4e0a\u6d77
p1813
V\u6d66\u4e1c\u65b0\u533a
p1814
tp1815
sg6
(V\u6e10\u884c\u6e10\u8fdc
p1816
I2
V\u6cb3\u5317
p1817
V\u77f3\u5bb6\u5e84
p1818
tp1819
sg8
(V\u5a07\u5a07
p1820
I2
V\u6cb3\u5317
p1821
V\u77f3\u5bb6\u5e84
p1822
tp1823
sg10
(V35844452
p1824
I1
V
p1825
g1825
tp1826
sg12
(V\u552f\u7f8e\u4f24\u611f\u7684\u8bdd
p1827
I0
V\u6cb3\u5317
p1828
V\u90af\u90f8
p1829
tp1830
sg14
(V\u51b7\u5154
p1831
I0
V\u5317\u4eac
p1832
V\u4e1c\u57ce
p1833
tp1834
sg16
(V\u738b\u5361\u52a9\u624b
p1835
I0
V\u5e7f\u4e1c
p1836
V\u6df1\u5733
p1837
tp1838
sg18
(V\u7535\u5f71\u5934\u6761
p1839
I0
V\u5317\u4eac
p1840
V\u671d\u9633
p1841
tp1842
sg20
(V\U0001f493biu\u5c0f\u59d1\u5a18
p1843
I2
V\u5e7f\u4e1c
p1844
V\u6df1\u5733
p1845
tp1846
sg22
(VA\u6597\u9c7c\u5c0f\u5f3a\u5e26\u56fe\u95ee\u4ef7
p1847
I2
g1825
g1825
tp1848
sg24
(V\u8981\u4e00\u6b65\u4e00\u6b65\u5f80\u4e0a\u722c
p1849
I1
V\u6cb3\u5317
p1850
V\u90a2\u53f0
p1851
tp1852
sg26
(V\u5434\u5f00\u534e
p1853
I1
g1825
g1825
tp1854
sg28
(V\u56db\u5927\u53ea
p1855
NNNtp1856
sg30
(V\u30a1\u72ec\u996e\u3024
p1857
I2
V\u6cb3\u5357
p1858
V\u5546\u4e18
p1859
tp1860
sg32
(V\u5f20\u8001\u5e08\u6cbb\u75d4\u75ae-\u8ba4\u51c6\u5fae\u4fe1\u53f7zczys9
p1861
I0
g1825
g1825
tp1862
sg34
(V\u6709\u9053\u4e91\u7b14\u8bb0
p1863
I0
V\u5317\u4eac
p1864
V\u6d77\u6dc0
p1865
tp1866
sg36
(V\u9648\u5dcd
p1867
I1
V\u5317\u4eac
p1868
V\u671d\u9633
p1869
tp1870
sg38
(V\u6cb3\u5357\u79fb\u52a810086
p1871
I0
V\u6cb3\u5357
p1872
V\u90d1\u5dde
p1873
tp1874
sg40
(VPrisoner
p1875
I2
g1825
g1825
tp1876
sg42
(V\u89f4\u61ff__\u612b\u61e6
p1877
I2
V\u6cb3\u5357
p1878
V\u5546\u4e18
p1879
tp1880
sg44
(VAAA\u5927\u61d2\u732b\u674e\u7389\U0001f33913522983902
p1881
I2
V\u5317\u4eac
p1882
V\u6d77\u6dc0
p1883
tp1884
sg46
(V\u5d14\u6d69\u4e1c
p1885
I1
V\u5b89\u5fbd
p1886
V\u5bbf\u5dde
p1887
tp1888
sg48
(V\u738b\u54f2
p1889
I1
V\u6cb3\u5357
p1890
V\u9a7b\u9a6c\u5e97
p1891
tp1892
sg50
(V\u79c0\u4f18\u6f58
p1893
I1
V\u4e0a\u6d77
p1894
V\u5f90\u6c47
p1895
tp1896
sg52
(V\u662f\u68a6\u7ec8\u4f1a\u9192\u3002
p1897
I2
V\u798f\u5efa
p1898
V\u8386\u7530
p1899
tp1900
sg54
(V\u2747 \u6e29\u67d4\u72e0\u89d2\u8272\U0001f48b
p1901
I2
V\u5c71\u4e1c
p1902
V\u4e34\u6c82
p1903
tp1904
sg56
(Vjodie\u2665\u8fea
p1905
I2
V\u5317\u4eac
p1906
V\u671d\u9633
p1907
tp1908
sg58
(V\u4e03\u4e03
p1909
I1
NNtp1910
sg60
(V__ \u5c0f\u9752\u5e74
p1911
I1
V\u65b0\u7586
p1912
V\u5df4\u97f3\u90ed\u695e
p1913
tp1914
sg62
(V\u963f\u98deKathy
p1915
I0
V\u6c5f\u82cf
p1916
V\u5357\u4eac
p1917
tp1918
sg64
(V\u53ef\u7231\u7684\u867e\u5ac2\U0001f476
p1919
I2
VParis
p1920
g1825
tp1921
sg66
(V\u5c0f\u571f\u8c46\u5b55\u5a74\u9986
p1922
I2
V\u6cb3\u5357
p1923
V\u5546\u4e18
p1924
tp1925
sg68
(V\u4e00\u5ff5\u82b1\u5f00
p1926
I1
g1825
g1825
tp1927
sg70
(V\u8bf7\u53eb\u6211\u5b8b\u55f2\u55f2   [\u563f\u54c8]
p1928
I2
g1825
g1825
tp1929
sg72
(V\u5b5f\u5e05\u9886
p1930
I1
V\u6cb3\u5357
p1931
V\u90d1\u5dde
p1932
tp1933
sg74
(Vfurther
p1934
NNNtp1935
sg76
(V\u5317\u4eac\u516c\u4ea4\u96c6\u56e2
p1936
I0
V\u5317\u4eac
p1937
V\u4e30\u53f0
p1938
tp1939
sg78
(V\u5317\u8fb0\u6709\u661f
p1940
I1
VParis
p1941
g1825
tp1942
sg80
(V\u9a6c\u798f\u83b213632538626\U0001f384\u6df1\u5733\u94fe\u5bb6
p1943
I0
V\u5e7f\u4e1c
p1944
V\u6df1\u5733
p1945
tp1946
sg82
(V\u6709\u9053\u8003\u795e\u56db\u516d\u7ea7
p1947
I0
V\u5317\u4eac
p1948
V\u6d77\u6dc0
p1949
tp1950
sg84
(V\u5c71\u9752\u6c34\u79c0
p1951
I1
g1825
g1825
tp1952
sg86
(Vvivo\u6df1\u5733
p1953
I0
V\u5e7f\u4e1c
p1954
V\u6df1\u5733
p1955
tp1956
sg88
(V\u7a7a\u57ce\u68a6
p1957
I1
V\u6cb3\u5357
p1958
V\u5546\u4e18
p1959
tp1960
sg90
(V\u96f7\u670b
p1961
I1
V\u6cb3\u5357
p1962
V\u5546\u4e18
p1963
tp1964
sg92
(V\u5fc3\u65e0\u6240\u6043
p1965
I1
g1825
g1825
tp1966
sg94
(V\u96c4\u9e70
p1967
I1
V\u6cb3\u5317
p1968
V\u77f3\u5bb6\u5e84
p1969
tp1970
sg96
(V\u52b1\u5fd7\u4e00\u751f
p1971
I0
V\u6e56\u5317
p1972
V\u9ec4\u5188
p1973
tp1974
sg98
(V\u9ed1\u9a6c\u7a0b\u5e8f\u5458\u89c6\u9891\u5e93
p1975
I0
V\u5317\u4eac
p1976
V\u660c\u5e73
p1977
tp1978
sg100
(V\u6d4b\u8bd5\u7fa4( \u2022\u0e34_\u2022 \u0e34)
p1979
NNNtp1980
sg102
(V\u7ed9\u6211\u7f50\u53ef\u4e50\u3002
p1981
I1
VWexford
p1982
g1825
tp1983
sg104
(VXerxes\U0001f31f
p1984
I1
V\u6cb3\u5357
p1985
V\u90d1\u5dde
p1986
tp1987
sg106
(V\u540d\u4ed5\u660a\u8272\u5f69\u5986\uff0bZUZU\u62a4\u80a4
p1988
I2
V\u5c71\u4e1c
p1989
V\u6cf0\u5b89
p1990
tp1991
sg108
(V\u4eac\u4e1c\u6821\u56ed
p1992
I0
V\u5317\u4eac
p1993
V\u5927\u5174
p1994
tp1995
sg110
(V\u2614\u2600
p1996
I2
V\u6d59\u6c5f
p1997
V\u91d1\u534e
p1998
tp1999
sg112
(V\u67f3\u513f
p2000
I2
V\u5317\u4eac
p2001
V\u671d\u9633
p2002
tp2003
sg114
(VLois
p2004
I2
g1825
g1825
tp2005
sg116
(V\u6b64\u53bb\u7ecf\u5e74
p2006
I2
g1825
g1825
tp2007
sg118
(V\u805a\u9177\u5546\u57ce
p2008
I0
V\u798f\u5efa
p2009
V\u8386\u7530
p2010
tp2011
sg120
(V\u667a\u8054\u62db\u8058\u670d\u52a1\u53f7
p2012
I0
V\u5317\u4eac
p2013
V\u4e1c\u57ce
p2014
tp2015
sg122
(V\u674e\u5e78\u8fd0
p2016
I1
V\u6cb3\u5357
p2017
g1825
tp2018
sg124
(Vsunshine
p2019
I2
V\u4e91\u5357
p2020
V\u6606\u660e
p2021
tp2022
sg126
(V\u5317\u4eac\u5b9e\u65f6\u516c\u4ea4
p2023
I0
V\u5317\u4eac
p2024
V\u671d\u9633
p2025
tp2026
sg128
(VHenry
p2027
I1
V\u6cb3\u5357
p2028
V\u4fe1\u9633
p2029
tp2030
sg130
(V\u5584\u54c9\U0001f64f
p2031
I1
g1825
g1825
tp2032
sg132
(V\u738b\u6c38\u7231\u7406\u53d1
p2033
I0
V\u5317\u4eac
p2034
V\u6d77\u6dc0
p2035
tp2036
sg134
(V\u8a93\u8a00\u3002
p2037
I2
V\u6cb3\u5317
p2038
V\u77f3\u5bb6\u5e84
p2039
tp2040
sg136
(VT
p2041
I2
V\u6cb3\u5357
p2042
V\u5546\u4e18
p2043
tp2044
sg138
(VMarry
p2045
I2
V\u6cb3\u5317
p2046
V\u77f3\u5bb6\u5e84
p2047
tp2048
sg140
(V\u8f6f\u901a\u52a8\u529b\u5185\u90e8\u63a8\u8350
p2049
I0
V\u5317\u4eac
p2050
V\u6d77\u6dc0
p2051
tp2052
sg142
(V\u65bd\u4e00\u7b11
p2053
I1
V\u6e56\u5357
p2054
V\u5cb3\u9633
p2055
tp2056
sg144
(VTestin\u4e91\u6d4b
p2057
I0
V\u5317\u4eac
p2058
V\u671d\u9633
p2059
tp2060
sg146
(V\u590d\u65e6\u7ba1\u9662
p2061
I0
V\u4e0a\u6d77
p2062
V\u6768\u6d66
p2063
tp2064
sg148
(V\u7b80\u7b80\u5355\u5355\u5c31\u597d
p2065
I1
V\u6cb3\u5317
p2066
V\u77f3\u5bb6\u5e84
p2067
tp2068
sg150
(V\u6296\u97f3\u77ed\u89c6\u9891
p2069
I0
V\u5317\u4eac
p2070
V\u6d77\u6dc0
p2071
tp2072
sg152
(V\u97e6\u535a\u82f1\u8bed
p2073
I0
V\u4e0a\u6d77
p2074
V\u5f90\u6c47
p2075
tp2076
sg154
(V\u756a\u8304\u52a0\u9e21\u86cb
p2077
I1
V\u6cb3\u5357
p2078
V\u5357\u9633
p2079
tp2080
sg156
(V\u8f9b\u96c6\u5fa1\u8857\u4e92\u8054\u7f51KTV
p2081
I0
V\u6cb3\u5317
p2082
V\u77f3\u5bb6\u5e84
p2083
tp2084
sg158
(V\u7533\u901a\u5feb\u9012
p2085
I0
V\u4e0a\u6d77
p2086
V\u9752\u6d66
p2087
tp2088
sg160
(V\u2076\u2076\u2076
p2089
I1
V\u6cb3\u5317
p2090
V\u77f3\u5bb6\u5e84
p2091
tp2092
sg162
(VA \u4e00\u624b\u56fd\u70df\u6279\u53d1\u96f6\u552e
p2093
I0
V\u798f\u5efa
p2094
V\u6f33\u5dde
p2095
tp2096
sg164
(V\u65f6\u5c1a\u5973\u4eba\u5802
p2097
I0
V\u5e7f\u4e1c
p2098
V\u5e7f\u5dde
p2099
tp2100
sg166
(V\u300cA\u300d\u96e8\u9521\u5efa\u6750\u5415\u79cb\u6bc515131229820
p2101
I1
V\u6cb3\u5317
p2102
V\u4fdd\u5b9a
p2103
tp2104
sg168
(V1
p2105
I1
V\u6cb3\u5357
p2106
V\u4e09\u95e8\u5ce1
p2107
tp2108
sg170
(V\u5168\u56fd
p2109
I0
g1825
g1825
tp2110
sg172
(V\u6653\u4f73
p2111
I2
V\u5e7f\u4e1c
p2112
V\u6df1\u5733
p2113
tp2114
sg174
(VC   W   Q
p2115
I1
VCuanza Sul
p2116
g1825
tp2117
sg176
(VR\u8bed\u8a00\u4e2d\u6587\u793e\u533a
p2118
I0
V\u4e0a\u6d77
p2119
V\u6d66\u4e1c\u65b0\u533a
p2120
tp2121
sg178
(Vpython\u4ea4\u6d41
p2122
NNNtp2123
sg180
(V\u5468\u51ac\u6885
p2124
I2
V\u6cb3\u5357
p2125
V\u4fe1\u9633
p2126
tp2127
sg182
(VZzzBbb
p2128
I2
g1825
g1825
tp2129
sg184
(V\u662f\u68a6\uff0c\u7ec8\u4f1a\u9192
p2130
I2
V\u798f\u5efa
p2131
V\u8386\u7530
p2132
tp2133
sg186
(V\u674e\u5149\u8fdc
p2134
I1
V\u4e0a\u6d77
p2135
V\u95f8\u5317
p2136
tp2137
sg188
(VA\u0f04TT
p2138
I1
V\u6cb3\u5317
p2139
V\u77f3\u5bb6\u5e84
p2140
tp2141
sg190
(V\u8317\u4fa6\u63a2@\u53ef\u4e50
p2142
I1
g1825
g1825
tp2143
sg192
(V\u8bf7\u4f4e\u914d\u4f60\u7684\u4eba\u751f
p2144
I1
V\u6cb3\u5357
p2145
V\u7126\u4f5c
p2146
tp2147
sg194
(Vkai
p2148
I1
V\u6cb3\u5357
p2149
V\u90d1\u5dde
p2150
tp2151
sg196
(V\u5510\u5c71\u76d8\u5b50\u5973\u4eba\u574a\u6444\u5f71
p2152
I0
V\u6e56\u5357
p2153
V\u957f\u6c99
p2154
tp2155
sg198
(V\u67ef\u5c0f\u7231
p2156
I0
V\u5e7f\u897f
p2157
V\u94a6\u5dde
p2158
tp2159
sg200
(VVivian
p2160
I2
VAddu Atoll
p2161
g1825
tp2162
sg202
(V\u8d3e\u51e1
p2163
I0
VRiyad
p2164
g1825
tp2165
sg204
(V\u975e\u5e38\u5e2e\u52a9
p2166
I0
V\u6cb3\u5317
p2167
V\u77f3\u5bb6\u5e84
p2168
tp2169
sg206
(V\u5f00\u5c01\u70ed\u70b9
p2170
I0
V\u6cb3\u5357
p2171
V\u5f00\u5c01
p2172
tp2173
sg208
(V\u4f20\u8bf4\u4e2d\u6ef4\u867e\u54e5
p2174
I1
V\u6cb3\u5357
p2175
V\u5546\u4e18
p2176
tp2177
sg210
(V\u6c38\u4fdd\u519b\u4eba\u672c\u8272
p2178
I1
V\u6cb3\u5317
p2179
V\u77f3\u5bb6\u5e84
p2180
tp2181
sg212
(V\u9ad8\u9759
p2182
I2
V\u6c5f\u82cf
p2183
V\u5357\u4eac
p2184
tp2185
sg214
(V\u5fae\u4fe1\u6e38\u620f
p2186
I0
V\u5e7f\u4e1c
p2187
V\u5e7f\u5dde
p2188
tp2189
sg216
(V\u6795\u8fb9\u55b5
p2190
I2
g1825
g1825
tp2191
sg218
(V\u4e2d\u56fd\u8054\u901a\u6cb3\u5357\u5ba2\u670d
p2192
I0
V\u6cb3\u5357
p2193
V\u90d1\u5dde
p2194
tp2195
sg220
(V\u5341\u65e5\u5341\u6708
p2196
I1
V\u6cb3\u5357
p2197
V\u5546\u4e18
p2198
tp2199
sg222
(VMy name \u6b66\u5353
p2200
I1
V\u6cb3\u5357
p2201
V\u5546\u4e18
p2202
tp2203
sg224
(V\u3043\uff0f\u5361\u5e03\u5947\u8bfa\u7684\u9752\u6da9
p2204
I2
V\u5b89\u5fbd
p2205
V\u5bbf\u5dde
p2206
tp2207
sg226
(VWRY
p2208
I2
VCarlow
p2209
g1825
tp2210
sg228
(Vhello world
p2211
I1
g1825
g1825
tp2212
sg230
(VMelody
p2213
I0
g1825
g1825
tp2214
sg232
(V\u4f60\u628a\u76f8\u601d\u8d4b\u4e88\u8c01
p2215
I1
V\u6cb3\u5317
p2216
V\u77f3\u5bb6\u5e84
p2217
tp2218
sg234
(V\u4e00\u9e23
p2219
I1
g1825
g1825
tp2220
sg236
(V\u501f\u6751\u53e3\u8349\u579b\u7528\u4e00\u7528
p2221
I1
V\u5317\u4eac
p2222
V\u901a\u5dde
p2223
tp2224
sg238
(V\u5f00\u5fc3\u6d88\u6d88\u4e50
p2225
I0
V\u5317\u4eac
p2226
g1825
tp2227
sg240
(V\u840c\U0001f338 \u5927\u65ed
p2228
I2
V\u5409\u6797
p2229
g1825
tp2230
sg242
(V\u5510\u94f6\u73c2
p2231
I1
V\u6cb3\u5357
p2232
V\u90d1\u5dde
p2233
tp2234
sg244
(V\u58f9\u53c8\u4e09\u5206\u4e4b\u4e00
p2235
I1
V\u65b0\u7586
p2236
V\u4f0a\u7281
p2237
tp2238
sg246
(V\u8f69\u4f73\u6167
p2239
I2
g1825
g1825
tp2240
sg248
(V\u64ad\u599e
p2241
I0
V\u5317\u4eac
p2242
V\u6d77\u6dc0
p2243
tp2244
sg250
(Vine
p2245
I1
V\u6c5f\u897f
p2246
V\u4e0a\u9976
p2247
tp2248
sg252
(VF u
p2249
I2
V\u6cb3\u5357
p2250
V\u5357\u9633
p2251
tp2252
sg254
(V\u5fae\u52a8E\u65cf\u5546\u4e18\u7ad9
p2253
I0
V\u6cb3\u5357
p2254
V\u5546\u4e18
p2255
tp2256
sg256
(V\u5c0f\u71d5
p2257
I2
V\u5317\u4eac
p2258
V\u6d77\u6dc0
p2259
tp2260
sg258
(V\u897f\u70b9
p2261
I1
VNew South Wales
p2262
VWollongong
p2263
tp2264
sg260
(V\u97e9\u68a6\u6210
p2265
NNNtp2266
sg262
(V~_~\u8096\u8096~_~
p2267
I2
V\u6cb3\u5357
p2268
V\u5546\u4e18
p2269
tp2270
sg264
(V\u8bf7@\uff0c\uff20x\uff20
p2271
I2
V\u6cb3\u5357
p2272
V\u9a7b\u9a6c\u5e97
p2273
tp2274
sg266
(V\u98ce\u8d77\u4e91\u6d8c
p2275
I1
VUpper Austria
p2276
g1825
tp2277
sg268
(VAA-\u9759\u6d41\u56db\u65b9
p2278
I1
V\u5e7f\u4e1c
p2279
V\u6df1\u5733
p2280
tp2281
sg270
(VVincent Yim
p2282
I1
V\u4e0a\u6d77
p2283
V\u8679\u53e3
p2284
tp2285
sg272
(V18\u5c81\u7684\u5c0f\u8f69\u5b50
p2286
I1
VFrejus
p2287
g1825
tp2288
sg274
(V\u590d\u65e6
p2289
I1
V\u6cb3\u5357
p2290
V\u5546\u4e18
p2291
tp2292
sg276
(V\u521d\u56db\u8861\u6c34\u9752\u5e74\u5927\u8db4\u7537\u751f\u7fa4
p2293
NNNtp2294
sg278
(VScarborough Fair
p2295
I1
V\u6cb3\u5357
p2296
V\u5357\u9633
p2297
tp2298
sg280
(V\u82f9\u679c\u5728\u7ebf\u5546\u5e97(\u8bda\u62db\u4ee3\u7406)
p2299
I2
VEastern
p2300
g1825
tp2301
sg282
(VGlen
p2302
I1
VCalifornia
p2303
VSan Francisco
p2304
tp2305
sg284
(V\u7403\u7403\u5c0f\u5206\u961f
p2306
NNNtp2307
sg286
(VA~\u4fe1\u7528\u5361\u5c0f\u4f19\u5f20\u7984
p2308
I1
V\u5317\u4eac
p2309
g1825
tp2310
sg288
(V\u67ab\u542c\u96e8\u6b62
p2311
I0
V\u5317\u4eac
p2312
V\u660c\u5e73
p2313
tp2314
sg290
(VHold on
p2315
I1
V\u6cb3\u5357
p2316
V\u5546\u4e18
p2317
tp2318
sg292
(VChiki\u674e
p2319
I1
V\u5e7f\u4e1c
p2320
V\u6df1\u5733
p2321
tp2322
sg294
(V\u93ad\u6f4d\u65af\u7684\u5922
p2323
I1
g1825
g1825
tp2324
sg296
(V\u4e45\u8046\u9005
p2325
I1
g1825
g1825
tp2326
sg298
(V\u7545\u6e38\u76d0\u7530
p2327
I0
V\u5e7f\u4e1c
p2328
V\u6df1\u5733
p2329
tp2330
sg300
(V\u673a\u5668\u5b66\u4e60\u7b97\u6cd5\u4e0e\u81ea\u7136\u8bed\u8a00\u5904\u7406
p2331
I0
V\u9ed1\u9f99\u6c5f
p2332
V\u54c8\u5c14\u6ee8
p2333
tp2334
sg302
(V\u6728\u85af\u79d1\u6280
p2335
I0
V\u798f\u5efa
p2336
V\u53a6\u95e8
p2337
tp2338
sg304
(V\u81f4\u865a\u5b88\u9759
p2339
I1
g1825
g1825
tp2340
sg306
(V\u674e\u4fee
p2341
I1
V\u6cb3\u5317
p2342
V\u6ca7\u5dde
p2343
tp2344
sg308
(V\u6c5f\u6d9b
p2345
I1
V\u6cb3\u5357
p2346
V\u5546\u4e18
p2347
tp2348
sg310
(V\u7231\u5c1a\u978b\u4e1a\uff5e\u3010\u7ec8\u7aef\u653e\u8d27\u3011
p2349
I1
V\u798f\u5efa
p2350
V\u8386\u7530
p2351
tp2352
sg312
(VTANG
p2353
I1
V\u5e7f\u4e1c
p2354
V\u5e7f\u5dde
p2355
tp2356
sg314
(VKlear Lin\U0001f352
p2357
I2
V\u4e0a\u6d77
p2358
V\u6d66\u4e1c\u65b0\u533a
p2359
tp2360
sg316
(V\u4f20\u667a\u64ad\u5ba2\u5b66\u9662
p2361
I0
V\u5317\u4eac
p2362
V\u660c\u5e73
p2363
tp2364
sg318
(V\u8be5\u5e10\u53f7\u5df2\u6ce8\u9500
p2365
I0
V\u6cb3\u5357
p2366
V\u5546\u4e18
p2367
tp2368
sg320
(V\u4f59\u751f
p2369
I1
V\u6c5f\u82cf
p2370
V\u65e0\u9521
p2371
tp2372
sg322
(V717\u5b9e\u9a8c\u5ba4\u5de5\u4f5c\u7fa4
p2373
NNNtp2374
sg324
(VA\u695a\u7eb3\u6797
p2375
I1
V\u4e0a\u6d77
p2376
V\u677e\u6c5f
p2377
tp2378
sg326
(V\u8f69\u8f95
p2379
I1
V\u6cb3\u5357
p2380
V\u5546\u4e18
p2381
tp2382
sg328
(V\u64cd\u7eb5\u524d\u7aef
p2383
NNNtp2384
sg330
(V\u5f20\u6865\u6d0b\u6d0b\u901a\u8baf
p2385
I0
V\u6cb3\u5357
p2386
V\u5546\u4e18
p2387
tp2388
sg332
(V\u521d\u56db\u8861\u6c34\u5355\u8eab\u9752\u5e74
p2389
NNNtp2390
sg334
(VAAA\u6211\u662f\u8c01\u624b\u5fc3\u7684\u5b9d
p2391
I2
V\u6cb3\u5357
p2392
V\u5546\u4e18
p2393
tp2394
sg336
(V\u3006\u5c0f\u767c\u767c
p2395
I1
g1825
g1825
tp2396
sg338
(V\u76db\u519b
p2397
I1
V\u5b89\u5fbd
p2398
V\u829c\u6e56
p2399
tp2400
sg340
(V\u5361\u6885\u62c9
p2401
I2
V\u6cb3\u5357
p2402
V\u5546\u4e18
p2403
tp2404
sg342
(V\u4ea4\u6d41\u5206\u4eab
p2405
NNNtp2406
sg344
(Vpatrick
p2407
I1
V\u4e0a\u6d77
p2408
V\u6d66\u4e1c\u65b0\u533a
p2409
tp2410
sg346
(V\u6f47\u6f47
p2411
I2
V\u6cb3\u5357
p2412
V\u5b89\u9633
p2413
tp2414
sg348
(V\u7978\u7978
p2415
I1
V\u6cb3\u5357
p2416
V\u5f00\u5c01
p2417
tp2418
sg350
(V\u8c6a\u5927
p2419
I1
V\u6cb3\u5357
p2420
V\u5546\u4e18
p2421
tp2422
sg352
(V\u8001\u5317\u4eac\u5e03\u978b18266333275
p2423
I2
V\u5c71\u4e1c
p2424
V\u65e5\u7167
p2425
tp2426
sg354
(VAa\u8d5b\u5929\u7ecf\u5178\u88c5\u4fee
p2427
I1
V\u6cb3\u5357
p2428
V\u5546\u4e18
p2429
tp2430
sg356
(V\u6cb3\u5357\u6f6e\u4e8b\u513f
p2431
I0
V\u6cb3\u5357
p2432
V\u90d1\u5dde
p2433
tp2434
sg358
(V\u4e07\u80fd\u5c0f\u5e38\u8bc6
p2435
I0
V\u4e0a\u6d77
p2436
V\u5362\u6e7e
p2437
tp2438
sg360
(V\u5c0f\u4e88\u5466
p2439
I2
V\u6cb3\u5357
p2440
V\u5546\u4e18
p2441
tp2442
sg362
(V\u788e\u73bb\u7483\u6e23\u5b50
p2443
I1
V\u4e91\u5357
p2444
V\u6606\u660e
p2445
tp2446
sg364
(V\u4f60\u5f00\u5fc3\u5c31\u597dLa
p2447
I0
V\u6cb3\u5317
p2448
V\u90af\u90f8
p2449
tp2450
sg366
(V\u540e\u6765\U0001f483
p2451
I2
V\u6cb3\u5357
p2452
V\u5546\u4e18
p2453
tp2454
sg368
(V\u667a\u6167
p2455
I1
V\u6cb3\u5317
p2456
V\u5510\u5c71
p2457
tp2458
sg370
(V\u543e\u4e4b\u521d\u5fc3\uff0c\u6c38\u4e16\u4e0d\u5fd8\u3002
p2459
I1
V\u6cb3\u5357
p2460
V\u5546\u4e18
p2461
tp2462
sg372
(VTerryMin
p2463
I1
V\u6cb3\u5357
p2464
V\u4fe1\u9633
p2465
tp2466
sg374
(V\u8d85
p2467
I1
g1825
g1825
tp2468
sg376
(V\u5f20\u514b\u5b87
p2469
I1
V\u6cb3\u5357
p2470
V\u5546\u4e18
p2471
tp2472
sg378
(V\u529b\u6bd4\u591a.\u5f17\u6d1b\u4f0a\u5fb7
p2473
I1
V\u6cb3\u5357
p2474
V\u4fe1\u9633
p2475
tp2476
sg380
(V\u675c\u675c\u675c
p2477
I2
g1825
g1825
tp2478
sg382
(V\u5218\u5cf0
p2479
I2
V\u6cb3\u5357
p2480
V\u6d1b\u9633
p2481
tp2482
sg384
(VA3\uff5e47\uff0c\u5c0f\u96ea\u96ea\u7684\u5bb6\U0001f380
p2483
I2
V\u8fbd\u5b81
p2484
V\u94c1\u5cad
p2485
tp2486
sg386
(V\u6b23\u59d0\u59d0\uff06
p2487
I2
V\u6d59\u6c5f
p2488
V\u91d1\u534e
p2489
tp2490
sg388
(V\u5f90\u76c8\u6e05
p2491
I1
V\u5e7f\u4e1c
p2492
V\u6df1\u5733
p2493
tp2494
sg390
(V\u5289\u5148\u751f\U0001f530
p2495
I1
V\u6cb3\u5357
p2496
V\u4fe1\u9633
p2497
tp2498
sg392
(V\u7231\u4f60\u3002\u3002\u3002\u3002\u3002
p2499
I2
V\u6cb3\u5317
p2500
V\u77f3\u5bb6\u5e84
p2501
tp2502
sg394
(V\u9886\u609f\u751f\u6d3b
p2503
I0
V\u6cb3\u5357
p2504
V\u4fe1\u9633
p2505
tp2506
sg396
(V\u89c6\u7a7a\u2665IQ
p2507
I2
V\u6cb3\u5357
p2508
V\u7126\u4f5c
p2509
tp2510
sg398
(V\u7231\u6d41\u91cf
p2511
I0
V\u5317\u4eac
p2512
V\u897f\u57ce
p2513
tp2514
sg400
(V\u56db\u5c0f\u53ea
p2515
NNNtp2516
sg402
(V\u8702\u738b
p2517
I1
V\u6cb3\u5357
p2518
V\u5546\u4e18
p2519
tp2520
sg404
(V\u9b3c\u513f\u005c
p2521
I1
V\u6cb3\u5317
p2522
V\u77f3\u5bb6\u5e84
p2523
tp2524
sg406
(V\u82e6\u529b\u6015\u4e0d\u662f\u82e6\u529b
p2525
I1
V\u6e56\u5357
p2526
V\u957f\u6c99
p2527
tp2528
sg408
(Vstar\u5434
p2529
I2
V\u6cb3\u5317
p2530
V\u77f3\u5bb6\u5e84
p2531
tp2532
sg410
(VLess interests.More interest.
p2533
I2
V\u6cb3\u5357
p2534
V\u5546\u4e18
p2535
tp2536
sg412
(V\u83dc\u9e1f\u5b66Python
p2537
I0
V\u6c5f\u82cf
p2538
V\u5357\u4eac
p2539
tp2540
sg414
(VEmma
p2541
I2
V\u4e0a\u6d77
p2542
V\u6768\u6d66
p2543
tp2544
sg416
(V\u8bf7\u53eb\u6211\u8fbe\u6587\u897f
p2545
I1
g1825
g1825
tp2546
sg418
(V\u5218\u5fd7\u5b8f
p2547
I1
g1825
g1825
tp2548
sg420
(VZ
p2549
I2
V\u6cb3\u5357
p2550
V\u5546\u4e18
p2551
tp2552
sg422
(V\u9b45\u529b\u5973\u738b\u517b\u6210\u8bb0
p2553
I0
V\u6cb3\u5357
p2554
V\u6d1b\u9633
p2555
tp2556
sg424
(V\u751f\u6d3b\u6709\u70b9\u751c
p2557
I1
V\u6cb3\u5317
p2558
V\u4fdd\u5b9a
p2559
tp2560
sg426
(V\u674e\u7136
p2561
I1
V\u5317\u4eac
p2562
V\u671d\u9633
p2563
tp2564
sg428
(Vhx
p2565
NNNtp2566
sg430
(Vare\u674e\u6728\u5b50
p2567
I2
VOffaly
p2568
g1825
tp2569
sg432
(V\u4e2d\u56fd\u592a\u5e73
p2570
I0
VWan Chai
p2571
g1825
tp2572
sg434
(V\u5feb\u4e50\u6bcf\u4e00\u5929
p2573
I2
VJeju-do
p2574
VSeongnam
p2575
tp2576
sg436
(VHi
p2577
I1
V\u4e0a\u6d77
p2578
V\u6d66\u4e1c\u65b0\u533a
p2579
tp2580
sg438
(V\u52ff\u5ff5
p2581
I1
VYau Tsim Mong
p2582
g1825
tp2583
sg440
(V\u6613\u5bbd\u91cf\u5316
p2584
I0
V\u4e0a\u6d77
p2585
V\u6d66\u4e1c\u65b0\u533a
p2586
tp2587
sg442
(VShiWei^\u2006_\u2006^
p2588
I1
V\u6cb3\u5317
p2589
V\u77f3\u5bb6\u5e84
p2590
tp2591
sg444
(VA\u529e\u7406\u9a7e\u9a76\u8bc1   \u4eba\u9669   \u8f66\u9669
p2592
I2
g1825
g1825
tp2593
sg446
(V\u7b80\u5355\u70b9
p2594
I1
V\u5c71\u4e1c
p2595
V\u804a\u57ce
p2596
tp2597
sg448
(V\U0001f48b\U0001f48b\u5b9d\u513f\U0001f525\U0001f525
p2598
I2
V\u5929\u6d25
p2599
V\u6cb3\u897f
p2600
tp2601
sg450
(V\u0f3a\u0f00\u9ad9\u660e\u0f00\u0f3b
p2602
I1
V\u6cb3\u5317
p2603
V\u77f3\u5bb6\u5e84
p2604
tp2605
sg452
(VCinderella\u3001
p2606
I2
V\u6cb3\u5317
p2607
V\u77f3\u5bb6\u5e84
p2608
tp2609
sg454
(V\u7f8e\u56e2
p2610
I0
V\u5317\u4eac
p2611
V\u671d\u9633
p2612
tp2613
sg456
(V\u6d0b
p2614
I2
V\u5c71\u897f
p2615
V\u5927\u540c
p2616
tp2617
sg458
(V\u5e78\u798f\u4e00\u7ba9\u7b50\u3001
p2618
I2
V\u5c71\u4e1c
p2619
V\u4e34\u6c82
p2620
tp2621
sg460
(VMartin(\u738b\u8d85)
p2622
I1
g1825
g1825
tp2623
sg462
(VLily
p2624
I2
V\u6e56\u5317
p2625
V\u6b66\u6c49
p2626
tp2627
sg464
(V\u516c\u53f8\u5927\u7fa4
p2628
NNNtp2629
sg466
(V\u9648\u5174
p2630
I0
g1825
g1825
tp2631
sg468
(V\u4e00\u8def\u91d1\u878d
p2632
I1
V\u6e56\u5357
p2633
V\u957f\u6c99
p2634
tp2635
sg470
(V\u6d45\u6d45\u4e4b\u8bed
p2636
I2
VSeoul
p2637
g1825
tp2638
sg472
(V\u817e\u8baf\u624b\u673a\u5145\u503c
p2639
I0
V\u5e7f\u4e1c
p2640
V\u6df1\u5733
p2641
tp2642
sg474
(V\u7f57\u8f91\u601d\u7ef4
p2643
I0
V\u5317\u4eac
p2644
V\u671d\u9633
p2645
tp2646
sg476
(V\u91d1\u725b\u9a91\u58eb\u7537\u978b
p2647
I0
V\u6d59\u6c5f
p2648
V\u6e29\u5dde
p2649
tp2650
sg478
(V\u7b11\u5bf9\u4eba\u751f\u3002
p2651
I2
V\u6cb3\u5317
p2652
g1825
tp2653
sg480
(V.
p2654
I2
V\u5c71\u4e1c
p2655
V\u6d4e\u5357
p2656
tp2657
sg482
(V\u7d2b\u7fbd\u58a8\u8f69
p2658
I1
V\u5929\u6d25
p2659
g1825
tp2660
sg484
(VDouble \u2606\u5e78\u798f
p2661
I2
V\u7518\u8083
p2662
V\u5170\u5dde\u5e02
p2663
tp2664
sg486
(VA1\u6df1\u6539\u8f66\u706f \u5510\u5c71\u603b\u90e8_\u590f\u5b87
p2665
I1
V\u6cb3\u5317
p2666
V\u5510\u5c71
p2667
tp2668
sg488
(VA\U0001f451smile\u2728
p2669
I2
g1825
g1825
tp2670
sg490
(V\u67d8\u57ce\u7535\u89c6\u53f0
p2671
I0
V\u6cb3\u5357
p2672
V\u5546\u4e18
p2673
tp2674
sg492
(V\u817e\u8baf\u5145\u503c
p2675
I0
V\u5e7f\u4e1c
p2676
V\u6df1\u5733
p2677
tp2678
sg494
(V\u7801\u519c\u6709\u9053
p2679
I0
V\u5e7f\u4e1c
p2680
V\u6df1\u5733
p2681
tp2682
sg496
(VL.G.Lau\u2075
p2683
I1
V\u6cb3\u5357
p2684
V\u4fe1\u9633
p2685
tp2686
sg498
(V\u5408\u4f17\u56fd\u91d1
p2687
I0
V\u5317\u4eac
p2688
V\u6d77\u6dc0
p2689
tp2690
sg500
(V\u5317\u4eac\u6c38\u5b9a\u95e8\u957f\u9014\u6c7d\u8f66\u7ad9
p2691
I0
V\u5317\u4eac
p2692
V\u4e1c\u57ce
p2693
tp2694
sg502
(VAct\u56e2\u961f
p2695
I0
V\u6d59\u6c5f
p2696
V\u4e3d\u6c34
p2697
tp2698
sg504
(V\u7fbd\u96ea
p2699
I2
V\u8fbd\u5b81
p2700
V\u5927\u8fde
p2701
tp2702
sg506
(V\u5468\u6db5
p2703
I1
V\u5c71\u4e1c
p2704
V\u6d4e\u5357
p2705
tp2706
sg508
(V\u997f\u4e86\u4e48\U0001f463  \u5c0f\u8fa3\u6912
p2707
I2
V\u6cb3\u5317
p2708
g1825
tp2709
sg510
(V\u5f6c\u5f6c\u6709\u4e3d
p2710
I1
V\u6cb3\u5357
p2711
V\u5546\u4e18
p2712
tp2713
sg512
(VAO\u5e73\u5b89\u501f\u6b3e\u670d\u52a1\u6731\u5c0f\u96ea18537096830
p2714
I2
V\u6cb3\u5357
p2715
V\u5546\u4e18
p2716
tp2717
sg514
(VWeixiN
p2718
I1
g1825
g1825
tp2719
sg516
(V\u79c0\u79c0
p2720
I2
V\u7518\u8083
p2721
V\u5170\u5dde\u5e02
p2722
tp2723
sg518
(V\u4e00\u5207\u968f\u7f18
p2724
I1
V\u7518\u8083
p2725
V\u767d\u94f6
p2726
tp2727
sg520
(V\u5355\u8eab
p2728
I2
V\u6cb3\u5357
p2729
V\u5546\u4e18
p2730
tp2731
sg522
(V\u5fae\u4fe1\u516c\u4f17\u5e73\u53f0
p2732
I0
V\u5e7f\u4e1c
p2733
V\u5e7f\u5dde
p2734
tp2735
sg524
(V\u4eba\u95f4\u56db\u6708\u5929
p2736
I2
V\u6cb3\u5357
p2737
V\u5546\u4e18
p2738
tp2739
sg526
(V\u9152\u7a9d
p2740
I1
g1825
g1825
tp2741
sg528
(V\u98d8
p2742
I0
V\u6cb3\u5357
p2743
V\u7126\u4f5c
p2744
tp2745
sg530
(V\u8377\u67cf\u56ed \u795b\u75d8\u2460\u5e97
p2746
I1
V\u6cb3\u5357
p2747
V\u90d1\u5dde
p2748
tp2749
sg532
(V\u9ea6\u683c\u5c3c\u83f2\u4f20\u5a92
p2750
I0
V\u5e7f\u4e1c
p2751
V\u5e7f\u5dde
p2752
tp2753
sg534
(V\u957f\u6cf0\u5e7f\u573a
p2754
I0
V\u4e0a\u6d77
p2755
V\u6d66\u4e1c\u65b0\u533a
p2756
tp2757
sg536
(V\u7b80\u5355\u7684\u4e00\u4e2a\u4eba
p2758
I1
V\u8fbd\u5b81
p2759
V\u5927\u8fde
p2760
tp2761
sg538
(V\u6606\u4ed1\u5c71\u9ad8\u7aef\u77ff\u6cc9\u6c34
p2762
I0
V\u5317\u4eac
p2763
V\u671d\u9633
p2764
tp2765
sg540
(VAllSafeZzhe\u3010\u4e07\u5c71\u901a\u8baf\u3011No.6
p2766
I1
V\u5c71\u897f
p2767
V\u957f\u6cbb
p2768
tp2769
sg542
(VSAHLRA
p2770
I0
V\u5317\u4eac
p2771
V\u5927\u5174
p2772
tp2773
sg544
(V\u8717\u725b
p2774
I1
V\u6c5f\u82cf
p2775
V\u6dee\u5b89
p2776
tp2777
sg546
(V58\u540c\u57ce
p2778
I0
V\u5317\u4eac
p2779
V\u671d\u9633
p2780
tp2781
sg548
(V\u98de\u821e\u7684\u6c34\u6676\u978b
p2782
I2
g1825
g1825
tp2783
sg550
(V\u8f9b\u96c6\u53d1\u5e03
p2784
I0
V\u6cb3\u5317
p2785
V\u77f3\u5bb6\u5e84
p2786
tp2787
sg552
(V\u6743\u5c0f\u61d2
p2788
I1
V\u6cb3\u5317
p2789
V\u77f3\u5bb6\u5e84
p2790
tp2791
sg554
(Voffer\u5148\u751f
p2792
I0
V\u5317\u4eac
p2793
V\u671d\u9633
p2794
tp2795
sg556
(Vsay
p2796
I1
V\u6cb3\u5317
p2797
V\u77f3\u5bb6\u5e84
p2798
tp2799
sg558
(VAA\u8010\u514b NB \u963f\u8fea \u8bda\u62db\u4ee3\u7406
p2800
I2
V\u798f\u5efa
p2801
V\u8386\u7530
p2802
tp2803
sg560
(V\u4e0a\u6d77\u4f20\u667a\u64ad\u5ba2\u9ed1\u9a6c\u7a0b\u5e8f\u5458
p2804
I0
V\u4e0a\u6d77
p2805
V\u95f5\u884c
p2806
tp2807
sg562
(V\u82cf\u3002\u3002\u3002
p2808
I1
V\u6cb3\u5357
p2809
V\u5546\u4e18
p2810
tp2811
sg564
(V\u68a7\u6850\u53f6
p2812
I1
V\u6cb3\u5357
p2813
V\u5546\u4e18
p2814
tp2815
sg566
(V\u5b89\u5a1c
p2816
I2
V\u6e56\u5317
p2817
V\u6b66\u6c49
p2818
tp2819
sg568
(V\u90a3\u5c31\u8fd9\u6837\u5427
p2820
I1
V\u6cb3\u5357
p2821
V\u5546\u4e18
p2822
tp2823
sg570
(VWPS\u529e\u516c\u52a9\u624b
p2824
I0
V\u5e7f\u4e1c
p2825
V\u73e0\u6d77
p2826
tp2827
sg572
(V\u8d3e\u559c\u745e
p2828
I1
V\u5317\u4eac
p2829
V\u6d77\u6dc0
p2830
tp2831
sg574
(V\u6c49\u80fd
p2832
I0
V\u5317\u4eac
p2833
V\u671d\u9633
p2834
tp2835
sg576
(V`
p2836
I1
V\u6cb3\u5317
p2837
V\u77f3\u5bb6\u5e84
p2838
tp2839
sg578
(V\u6d0b\u6d0b\u901a\u8baf
p2840
I1
V\u6cb3\u5357
p2841
V\u5546\u4e18
p2842
tp2843
sg580
(V\u9ed1\u9a6c\u7a0b\u5e8f\u5458
p2844
I0
V\u5317\u4eac
p2845
V\u660c\u5e73
p2846
tp2847
sg582
(V \u226ec\u3002\u226f\u534a\u76cf\u6d41\u5e74
p2848
I2
V\u5929\u6d25
p2849
V\u6b66\u6e05
p2850
tp2851
sg584
(V\u5c0f\u73c2
p2852
NNNtp2853
sg586
(V\u4e00\u671f\u4e00\u4f1a
p2854
I2
g1825
g1825
tp2855
sg588
(V\u805a\u5bbd\u7b56\u7565\u5546\u57ce\u5ba2\u670d
p2856
I0
g1825
g1825
tp2857
sg590
(V\u8f69
p2858
I2
V\u6cb3\u5357
p2859
V\u90d1\u5dde
p2860
tp2861
sg592
(V\u4e70\u4e70\u83cc
p2862
I0
V\u5c71\u897f
p2863
V\u592a\u539f
p2864
tp2865
sg594
(V\u533a\u57df\u4e92\u8054\u7f51\u8054\u76df
p2866
I0
V\u5317\u4eac
p2867
V\u6d77\u6dc0
p2868
tp2869
sg596
(V\u79d1\u7801\u5148\u950b\u5317\u4eac
p2870
I0
V\u5317\u4eac
p2871
V\u671d\u9633
p2872
tp2873
sg598
(VSummer \u590f
p2874
I1
V\u5c71\u4e1c
p2875
V\u6ee8\u5dde
p2876
tp2877
sg600
(VIhaveyouwant
p2878
I0
V\u4e0a\u6d77
p2879
V\u6d66\u4e1c\u65b0\u533a
p2880
tp2881
sg602
(V\u6d69
p2882
I1
V\u5185\u8499\u53e4
p2883
V\u5305\u5934
p2884
tp2885
sg604
(V\u5c1b\u510d\u82fd\u30c5\u8576\u8a18\u61b6
p2886
I2
V\u6cb3\u5357
p2887
V\u5546\u4e18
p2888
tp2889
sg606
(V\u4f01\u7a0b\u5916\u8d38\u5708
p2890
I0
V\u5e7f\u4e1c
p2891
V\u5e7f\u5dde
p2892
tp2893
sg608
(Vxhx
p2894
I2
V\u5e7f\u4e1c
p2895
V\u6df1\u5733
p2896
tp2897
sg610
(V\u4f60\u4e5f\u5f88\u60f3\u6211\u5417
p2898
I1
V\u9655\u897f
p2899
V\u6e2d\u5357
p2900
tp2901
sg612
(V\u7b2c\u4e00\u624b\u5f71\u89c6
p2902
I0
g1825
g1825
tp2903
sg614
(V\u5e01\u5708\u767e\u79d1
p2904
I0
V\u6d59\u6c5f
p2905
V\u676d\u5dde
p2906
tp2907
sg616
(V\u5982\u679c\u662f\u547d\u8fd0\u3001\u6216\u8bb8
p2908
I2
V\u6cb3\u5317
p2909
V\u8861\u6c34
p2910
tp2911
sg618
(V\u5e78\u8fd0DX
p2912
I2
V\u6cb3\u5357
p2913
V\u5546\u4e18
p2914
tp2915
sg620
(V\u4ec4\u8a00
p2916
I1
V\u6d59\u6c5f
p2917
V\u5b81\u6ce2
p2918
tp2919
sg622
(VBaci
p2920
I1
V\u6cb3\u5317
p2921
g1825
tp2922
sg624
(V\uff5eTaylor\u5c0f\u5e05\uff5e
p2923
I1
V\u4e0a\u6d77
p2924
V\u957f\u5b81
p2925
tp2926
sg626
(V\u6c49\u80fd\u4eba\u529b
p2927
I0
V\u5317\u4eac
p2928
V\u671d\u9633
p2929
tp2930
sg628
(VA\u674e\u5e73\u5e73
p2931
I2
V\u6cb3\u5357
p2932
V\u6d1b\u9633
p2933
tp2934
sg630
(V\u80e1StarS
p2935
I1
V\u4e0a\u6d77
p2936
V\u5609\u5b9a
p2937
tp2938
sg632
(VSei
p2939
I2
V\u4e0a\u6d77
p2940
V\u6d66\u4e1c\u65b0\u533a
p2941
tp2942
sg634
(V\u67d0\u67d0\u67d0
p2943
I1
V\u6cb3\u5357
p2944
V\u4fe1\u9633
p2945
tp2946
sg636
(VA\u9ed1\u54e5\u7092\u996d:\u53e3\u53e3\u7559\u9999
p2947
I1
V\u4e0a\u6d77
p2948
V\u6d66\u4e1c\u65b0\u533a
p2949
tp2950
sg638
(V\u4eba\u6c11\u65e5\u62a5
p2951
I0
V\u5317\u4eac
p2952
V\u671d\u9633
p2953
tp2954
sg640
(V\u5317\u4eac\u79fb\u52a8
p2955
I0
V\u5317\u4eac
p2956
V\u4e1c\u57ce
p2957
tp2958
sg642
(V\u6c38\u6052
p2959
I1
VLower Austria
p2960
g1825
tp2961
sg644
(V\u5c0f\u76db
p2962
I1
V\u6cb3\u5357
p2963
V\u8bb8\u660c
p2964
tp2965
sg646
(V\u8d8a\u52aa\u529b\u8d8a\u5e78\u8fd0
p2966
I2
VUpper Austria
p2967
g1825
tp2968
sg648
(V\u4f55\u5fc5\u4e3a\u96be\u4e00\u53ea\u732a
p2969
I1
V\u6cb3\u5357
p2970
V\u5546\u4e18
p2971
tp2972
sg650
(V\u638c\u4e0a\u5dc5\u5cf0
p2973
I0
V\u5c71\u4e1c
p2974
V\u70df\u53f0
p2975
tp2976
sg652
(V\u5c1a\u96c5
p2977
I2
g1825
g1825
tp2978
sg654
(V\u62e5\u6709\u7684\u5e78\u798f
p2979
I0
g1825
g1825
tp2980
sg656
(V\U0001f482
p2981
I1
g1825
g1825
tp2982
sg658
(V\u8bba\u6587\u5b9d\u5b98\u7f51
p2983
I0
V\u6d59\u6c5f
p2984
V\u5609\u5174
p2985
tp2986
sg660
(V\u963f\u7965\u54e5
p2987
I1
V\u7518\u8083
p2988
V\u5609\u5cea\u5173
p2989
tp2990
sg662
(V\u5584\u6797\u533a\u5757\u94fe
p2991
I0
V\u4e0a\u6d77
p2992
V\u6d66\u4e1c\u65b0\u533a
p2993
tp2994
sg664
(V\u4f20\u667a\u64ad\u5ba2
p2995
I0
V\u5317\u4eac
p2996
V\u660c\u5e73
p2997
tp2998
sg666
(V\u5c18\u6749\u91ca\u9b42
p2999
I1
V\u6cb3\u5357
p3000
V\u5546\u4e18
p3001
tp3002
sg668
(V\u521d\u4e2d\u597d\u53cb  \u5410\u69fd\u5927\u4f1a
p3003
NNNtp3004
sg670
(V\u5929\u5357\u5730\u5317
p3005
I1
V\u6cb3\u5317
p3006
V\u5510\u5c71
p3007
tp3008
sg672
(V\u624b\u673a\u5145\u503c
p3009
I0
V\u5e7f\u4e1c
p3010
V\u6df1\u5733
p3011
tp3012
sg674
(V\u5927\u53ef\u4e50
p3013
I2
g1825
g1825
tp3014
sg676
(VMaggie
p3015
I2
V\u5e7f\u4e1c
p3016
V\u6df1\u5733
p3017
tp3018
sg678
(V\u5927\u9f99
p3019
I1
V\u6cb3\u5357
p3020
V\u5546\u4e18
p3021
tp3022
sg680
(V\U0001f340
p3023
I2
V\u6cb3\u5357
p3024
V\u5546\u4e18
p3025
tp3026
sg682
(V\u5b58\u6298
p3027
I0
g1825
g1825
tp3028
sg684
(V\u26a1\u3010\u4f1f\u6052\u901a\u8baf\u301115503899777
p3029
I2
V\u6cb3\u5357
p3030
V\u5546\u4e18
p3031
tp3032
sg686
(V\u6843\u7279\u522b
p3033
I1
g1825
g1825
tp3034
sg688
(V\uff0c\u8bb8\u534e
p3035
I2
V\u6cb3\u5317
p3036
V\u8861\u6c34
p3037
tp3038
sg690
(V\u6052\u5927\u51b0\u6cc9
p3039
I0
V\u5e7f\u4e1c
p3040
V\u5e7f\u5dde
p3041
tp3042
sg692
(V\u53ef\u4e50L\uff5eE
p3043
I1
V\u6cb3\u5357
p3044
V\u5546\u4e18
p3045
tp3046
sg694
(V\u5c0f\u857e
p3047
I2
g1825
g1825
tp3048
sg696
(V\u5929\u9053\u916c\u52e4
p3049
I2
g1825
g1825
tp3050
sg698
(V\u5f20\u6d69\u676818701735278
p3051
I1
V\u4e0a\u6d77
p3052
g1825
tp3053
sg700
(V\u671b\u671b\u671b\u671b\u671b
p3054
I1
V\u6cb3\u5357
p3055
V\u9a7b\u9a6c\u5e97
p3056
tp3057
sg702
(V\u5416~\u8d5e
p3058
I1
V\u5317\u4eac
p3059
V\u671d\u9633
p3060
tp3061
sg704
(V\u7fdf\u4e66\u6770
p3062
I1
V\u7518\u8083
p3063
g1825
tp3064
sg706
(V\u5317\u4eac\u672c\u5730\u5b9d
p3065
I0
V\u5e7f\u4e1c
p3066
V\u6df1\u5733
p3067
tp3068
sg708
(V\U0001f353Z-Ting
p3069
I2
V\u6cb3\u5357
p3070
V\u6fee\u9633
p3071
tp3072
sg710
(V\u5c0f\u5f3a\u5f3a\u7684\u5927\u6c6a~
p3073
I1
V\u5317\u4eac
p3074
V\u6d77\u6dc0
p3075
tp3076
sg712
(V\u300a\u675c\u6708\u7b19\u9753\u53f7\u5546\u884c\u300b18003701818
p3077
I1
V\u6cb3\u5357
p3078
V\u5546\u4e18
p3079
tp3080
sg714
(V\u65c5\u4eba
p3081
I1
V\u5c71\u4e1c
p3082
V\u6d4e\u5357
p3083
tp3084
sg716
(V\u81f3\u4eb2\u81f3\u7231
p3085
NNNtp3086
sg718
(V\u597d\u813e\u6c14\u7684\u516c\u4e3b
p3087
I2
V\u6cb3\u5317
p3088
V\u77f3\u5bb6\u5e84
p3089
tp3090
sg720
(VA00\u82cf\u4fca\u5cf017760778780
p3091
I1
V\u6cb3\u5357
p3092
V\u90d1\u5dde
p3093
tp3094
sg722
(V\u5973\u738b\u9a7e\u5230\u8131\u53e3\u79c0
p3095
I0
V\u5e7f\u4e1c
p3096
V\u5e7f\u5dde
p3097
tp3098
sg724
(V\u6545\u4eba\u4e0d\u987e
p3099
I1
V\u6cb3\u5357
p3100
V\u5546\u4e18
p3101
tp3102
sg726
(V\U0001f48dhealer
p3103
I2
V\u6cb3\u5317
p3104
V\u77f3\u5bb6\u5e84
p3105
tp3106
sg728
(V\u594b\u6597
p3107
I1
V\u6cb3\u5357
p3108
V\u5546\u4e18
p3109
tp3110
sg730
(Vlife
p3111
I1
V\u4e0a\u6d77
p3112
V\u6d66\u4e1c\u65b0\u533a
p3113
tp3114
sg732
(V\u679c\u7136\u7231\U0001f341
p3115
I1
V\u9ed1\u9f99\u6c5f
p3116
V\u54c8\u5c14\u6ee8
p3117
tp3118
sg734
(V\u82df\u5bcc\u8d35\U0001f338\U0001f43e\u52ff\u76f8\u5fd8
p3119
NNNtp3120
sg736
(V\u5fc3\u9ad8\u6c14\u50b2\u263a
p3121
I1
V\u6cb3\u5317
p3122
V\u77f3\u5bb6\u5e84
p3123
tp3124
sg738
(V\u5c0f\u8f89
p3125
I1
V\u4e0a\u6d77
p3126
V\u8679\u53e3
p3127
tp3128
sg740
(V\u77e5\u4e66\u5148\u751f
p3129
I0
V\u6c5f\u82cf
p3130
V\u5357\u4eac
p3131
tp3132
sg742
(V\u5a76\uff0c\u83dc\u53f6\u6389\u5566\uff01
p3133
I2
VVienna
p3134
g1825
tp3135
sg744
(V\U0001f48b \u561fDu\U0001f48b
p3136
I1
V\u6cb3\u5357
p3137
V\u90d1\u5dde
p3138
tp3139
sg746
(V\u6211\u60f3\u9017\u4f60\u7b11\u53ef\u4ee5\u5417\uff1f
p3140
I1
VQueensland
p3141
VBrisbane
p3142
tp3143
sg748
(VZnnnnn
p3144
I2
V\u5317\u4eac
p3145
g1825
tp3146
sg750
(V\u9732\u4eca
p3147
I2
V\u6cb3\u5357
p3148
V\u6fee\u9633
p3149
tp3150
sg752
(V\u9b4f\u5148\u751f
p3151
I1
VOffaly
p3152
g1825
tp3153
sg754
(V\u963f\u96c5
p3154
I2
VParis
p3155
g1825
tp3156
sg756
(V\u54ea\u5412\u770b\u5929\u4e0b
p3157
I0
V\u6e56\u5317
p3158
V\u6b66\u6c49
p3159
tp3160
sg758
(V\u76ae\u76ae\u65f6\u5149\u673a
p3161
I1
g1825
g1825
tp3162
sg760
(VQQ\u5b89\u5168\u4e2d\u5fc3
p3163
I0
V\u5e7f\u4e1c
p3164
V\u6df1\u5733
p3165
tp3166
sg762
(V\u83ab\u8a00
p3167
I1
V\u6cb3\u5357
p3168
V\u90d1\u5dde
p3169
tp3170
sg764
(V\u8449\u843d\u7121\u75d5
p3171
I1
g1825
g1825
tp3172
sg766
(V\u751c\u751c
p3173
I2
V\u6cb3\u5317
p3174
V\u5510\u5c71
p3175
tp3176
sg768
(V\u5b50\u83ab\u4e71\u8bed
p3177
I1
V\u6cb3\u5357
p3178
V\u8bb8\u660c
p3179
tp3180
sg770
(V170171\u670d\u52a1\u5385
p3181
I0
V\u5c71\u4e1c
p3182
V\u70df\u53f0
p3183
tp3184
sg772
(V\u4eba\u4ebaU\u5b66
p3185
I0
V\u5317\u4eac
p3186
V\u671d\u9633
p3187
tp3188
sg774
(V\u96e8\u7b60
p3189
I0
g1825
g1825
tp3190
sg776
(Vlondon
p3191
I1
V\u4e0a\u6d77
p3192
V\u6d66\u4e1c\u65b0\u533a
p3193
tp3194
sg778
(V\u7269\u7535\u5fae\u9752\u6625
p3195
I0
V\u6cb3\u5357
p3196
V\u5546\u4e18
p3197
tp3198
sg780
(V\u6768\u7ef4\u97ec
p3199
I1
V\u6e56\u5357
p3200
V\u957f\u6c99
p3201
tp3202
sg782
(V\u53ef\u53e3\u53ef\u4e50
p3203
I0
V\u4e0a\u6d77
p3204
V\u95f5\u884c
p3205
tp3206
sg784
(V\u4e00\u5bb6\u7684\u5e78\u798f
p3207
I0
V\u6cb3\u5357
p3208
V\u5546\u4e18
p3209
tp3210
sg786
(V\u738b\u8d85
p3211
I1
V\u6cb3\u5317
p3212
V\u5510\u5c71
p3213
tp3214
sg788
(V\u5c0f\u5f20
p3215
I2
g1825
g1825
tp3216
sg790
(Vtemo\U0001f449teAmo
p3217
I2
V\u5176\u4ed6
p3218
V\u7f8e\u5c5e\u8428\u6469\u4e9a
p3219
tp3220
sg792
(V\u77f3\u6cab\u6cab
p3221
I1
VOffaly
p3222
g1825
tp3223
sg794
(V\u6f47\u9038
p3224
I1
g1825
g1825
tp3225
sg796
(V\u7530\u6167\u5a1f
p3226
I2
V\u6cb3\u5357
p3227
V\u5546\u4e18
p3228
tp3229
sg798
(V\u6b63\u80fd\u91cf\u7684\u5c0f\u706b\u8f66\u3002
p3230
I2
g1825
g1825
tp3231
sg800
(V\u767e\u5ea6\u4f20\u8bfe
p3232
I0
V\u5317\u4eac
p3233
V\u6d77\u6dc0
p3234
tp3235
sg802
(VTain-\U0001f43b
p3236
I1
V\u4e0a\u6d77
p3237
V\u6d66\u4e1c\u65b0\u533a
p3238
tp3239
sg804
(V\ufe4f\u7d04\u5576\u2121
p3240
I1
g1825
g1825
tp3241
sg806
(V\u81f4\u6a61\u6811
p3242
I1
V\u5317\u4eac
p3243
V\u6d77\u6dc0
p3244
tp3245
sg808
(V\u82e5\u68ee\u753b\u6c5f\u6e56
p3246
I0
V\u5317\u4eac
p3247
V\u6d77\u6dc0
p3248
tp3249
sg810
(V\u6d4b\u8bd5\u7fa42
p3250
NNNtp3251
sg812
(V\u70b9\u70b9\u5988\u54aa\u4e4b\u300e\u5929\u732b\u6977\u51e1\u5bb6\u5c45\u4e13\u8425\u5e97
p3252
I2
g1825
g1825
tp3253
sg814
(V\u8bf1\u60d1\u7684\u7ea2\u8272
p3254
I2
g1825
g1825
tp3255
sg816
(V\u7206\u7b11\u6c61\u8d3c\u541b
p3256
I0
V\u5e7f\u897f
p3257
V\u94a6\u5dde
p3258
tp3259
sg818
(V__xingyeah__
p3260
I1
V\u5317\u4eac
p3261
g1825
tp3262
sg820
(V\u73b2\u73d1\u5c11\u5e74
p3263
I1
g1825
g1825
tp3264
sg822
(V\u5e78\u798f\u4e4b\u5bb6
p3265
I0
g1825
g1825
tp3266
sg824
(V\u6768\u6d01
p3267
I1
V\u6e56\u5317
p3268
V\u8346\u5dde
p3269
tp3270
sg826
(VLUCKY STAR
p3271
I2
V\u5e7f\u4e1c
p3272
V\u5e7f\u5dde
p3273
tp3274
sg828
(V\u5f20\u7389\u51e4
p3275
I2
V\u6cb3\u5357
p3276
V\u5546\u4e18
p3277
tp3278
sg830
(V\u72fc\u817e\u6d4b\u8bd5\u5458_\u660e\u6708\u8001\u5e08
p3279
I2
V\u5317\u4eac
p3280
g1825
tp3281
sg832
(V\u5546\u4e18\u5728\u7ebf
p3282
I0
V\u6cb3\u5357
p3283
V\u5546\u4e18
p3284
tp3285
sg834
(V\u9ed1\u5e03\u5934\u513f
p3286
I0
V\u5317\u4eac
p3287
V\u6d77\u6dc0
p3288
tp3289
sg836
(V\u4e91\u62db\u6c42\u804c
p3290
I0
V\u5317\u4eac
p3291
V\u671d\u9633
p3292
tp3293
sg838
(V\u5c0f\u5218\u8bb2\u6545\u4e8b
p3294
I1
V\u5e7f\u4e1c
p3295
V\u6df1\u5733
p3296
tp3297
sg840
(V\U0001f48b \u4e88\u6211\u5fc3\u5b89
p3298
I1
V\u5317\u4eac
p3299
g1825
tp3300
sg842
(V\u5415\u8d85
p3301
I1
V\u5e7f\u4e1c
p3302
V\u6df1\u5733
p3303
tp3304
sg844
(V\u6c38\u8fdc\u7684\u5f3a\u8005
p3305
I1
V\u6cb3\u5357
p3306
V\u5546\u4e18
p3307
tp3308
sg846
(VMax
p3309
I1
V\u6cb3\u5357
p3310
V\u90d1\u5dde
p3311
tp3312
sg848
(V\u83dc\u9e1f\u8981\u98de
p3313
I0
V\u6c5f\u82cf
p3314
V\u5357\u4eac
p3315
tp3316
sg850
(V\u7531\u4f60\u5355\u8f66\u57ce\u5e02\u7248
p3317
I0
V\u5317\u4eac
p3318
V\u6d77\u6dc0
p3319
tp3320
sg852
(VAnn\u4e70\u624b\u515a
p3321
I2
V\u6d59\u6c5f
p3322
V\u91d1\u534e
p3323
tp3324
sg854
(V\u3002
p3325
I2
V\u5c71\u4e1c
p3326
V\u9752\u5c9b
p3327
tp3328
sg856
(V\U0001f60f
p3329
I1
V\u5317\u4eac
p3330
V\u6d77\u6dc0
p3331
tp3332
sg858
(V\u6700\u521d\u7684\u68a6\u60f3
p3333
I0
VCanberra
p3334
g1825
tp3335
sg860
(V\u5c0f\u4e3d
p3336
I2
V\u5317\u4eac
p3337
V\u660c\u5e73
p3338
tp3339
sg862
(Vkaren
p3340
I2
V\u6cb3\u5357
p3341
V\u5546\u4e18
p3342
tp3343
sg864
(VNew Luck
p3344
I1
V\u5317\u4eac
p3345
V\u671d\u9633
p3346
tp3347
sg866
(V\u8d75\u5764
p3348
I1
V\u6cb3\u5357
p3349
V\u5546\u4e18
p3350
tp3351
sg868
(V\u9b4f\u56fd\u57ce
p3352
I1
V\u6cb3\u5317
p3353
V\u77f3\u5bb6\u5e84
p3354
tp3355
sg870
(V\u76f8\u4eb2\u76f8\u7231\u6211\u4eec\u5bb6
p3356
NNNtp3357
sg872
(V\u6d41\u5e74
p3358
I2
V\u5b89\u5fbd
p3359
V\u5bbf\u5dde
p3360
tp3361
sg874
(VPython\u4e4b\u7985
p3362
I0
V\u5e7f\u4e1c
p3363
V\u6df1\u5733
p3364
tp3365
sg876
(VHUGO
p3366
I0
V\u6d59\u6c5f
p3367
V\u676d\u5dde
p3368
tp3369
sg878
(V\u516c\u5bd3\u7ba1\u5bb6
p3370
I0
V\u4e0a\u6d77
p3371
V\u95f5\u884c
p3372
tp3373
sg880
(V\u6851\u845a\u513f
p3374
I2
g1825
g1825
tp3375
sg882
(V\u65f6\u95f4\u7684\u6b4c
p3376
I1
V\u4e0a\u6d77
p3377
V\u9759\u5b89
p3378
tp3379
sg884
(V\u4ee3\u5b5d\u5efa
p3380
I2
g1825
g1825
tp3381
sg886
(V\u3002\u3002\u3002\u3002\uff01
p3382
I1
V\u5317\u4eac
p3383
V\u671d\u9633
p3384
tp3385
sg888
(V\u4e2d\u56fd\u5efa\u8bbe\u94f6\u884c
p3386
I0
V\u5317\u4eac
p3387
V\u897f\u57ce
p3388
tp3389
sg890
(V\u4eac\u4e1cJD.COM
p3390
I0
V\u5e7f\u4e1c
p3391
V\u6df1\u5733
p3392
tp3393
sg892
(V\u6d77\u5b58\u5fd7\u5408SeaStor
p3394
I0
V\u5317\u4eac
p3395
V\u6d77\u6dc0
p3396
tp3397
sg894
(V\u65e0\u6127\u6211\u5fc3
p3398
I1
V\u6cb3\u5357
p3399
V\u5546\u4e18
p3400
tp3401
sg896
(V\u5c0f\u732a\u4f69\u5947\U0001f48b
p3402
I2
V\u8fbd\u5b81
p3403
V\u671d\u9633
p3404
tp3405
sg898
(V\u4efb\u68a6\u661f
p3406
I2
V\u6cb3\u5357
p3407
V\u5b89\u9633
p3408
tp3409
sg900
(V\u4e1c\u7bf1\u9690\u767d
p3410
I0
g1825
g1825
tp3411
sg902
(Vyky
p3412
I1
V\u4e0a\u6d77
p3413
V\u6d66\u4e1c\u65b0\u533a
p3414
tp3415
sg904
(V\u949f\u610f\u5927\u54e5.
p3416
I1
g1825
g1825
tp3417
sg906
(V\u6211\u7684902
p3418
I0
V\u6cb3\u5317
p3419
V\u77f3\u5bb6\u5e84
p3420
tp3421
sg908
(V\u7535\u5f71\u57fa\u5730
p3422
I0
V\u5e7f\u4e1c
p3423
V\u4e91\u6d6e
p3424
tp3425
sg910
(Vhhmint
p3426
I2
V\u5e7f\u897f
p3427
V\u5357\u5b81
p3428
tp3429
sg912
(V\u738b\u514b\u542f
p3430
I1
V\u6cb3\u5357
p3431
V\u5546\u4e18
p3432
tp3433
sg914
(V\ub9ac\ud3c9
p3434
I2
V\u5317\u4eac
p3435
V\u6d77\u6dc0
p3436
tp3437
sg916
(Vvivo\u6df1\u5733\u670d\u52a1\u4e2d\u5fc3
p3438
I0
V\u5e7f\u4e1c
p3439
V\u6df1\u5733
p3440
tp3441
sg918
(V\u8584\u8377\u52a0\u7cd6
p3442
I1
g1825
g1825
tp3443
sg920
(V\u9b45\u65cf\u79d1\u6280
p3444
I0
V\u5e7f\u4e1c
p3445
V\u73e0\u6d77
p3446
tp3447
sg922
(V\u6cb3\u5317\u5de5\u7a0b\u5927\u5b66\u52a9\u624b
p3448
I0
V\u5c71\u4e1c
p3449
V\u804a\u57ce
p3450
tp3451
sg924
(V\uff5b\u7537\u4eba\u82b1\uff5d\u6751\u957f
p3452
I1
V\u5929\u6d25
p3453
V\u6cb3\u4e1c
p3454
tp3455
sg926
(VSarah\u5bb6\u7684\u5996
p3456
I2
V\u4e0a\u6d77
p3457
V\u5b9d\u5c71
p3458
tp3459
sg928
(V\u987a\u5176\u81ea\u7136
p3460
I1
g1825
g1825
tp3461
sg932
(V\u51b7\u96e8
p3462
I2
V\u5e7f\u4e1c
p3463
V\u6df1\u5733
p3464
tp3465
sg934
(V\u5c0f\u51b0
p3466
I0
V\u5317\u4eac
p3467
V\u6d77\u6dc0
p3468
tp3469
sg936
(V\u6148\u5584\u5bb6
p3470
I1
g1825
g1825
tp3471
sg938
(V\u6709\u5927\u5927\u7684\u68a6
p3472
I1
V\u5b89\u5fbd
p3473
V\u516d\u5b89
p3474
tp3475
sg940
(V\u5c0f\u73b2
p3476
I2
V\u5e7f\u4e1c
p3477
V\u8087\u5e86
p3478
tp3479
sg942
(V\u4e3f\u90a3\u5e74\u4ef2\u590f\u4e28\u2b50\u2b50\u2193
p3480
I1
V\u6cb3\u5317
p3481
V\u90af\u90f8
p3482
tp3483
sg944
(VArry
p3484
I0
g1825
g1825
tp3485
sg946
(V\u6cb3\u5357\u5feb\u4e50V
p3486
I0
V\u7518\u8083
p3487
V\u5e86\u9633
p3488
tp3489
sg948
(V\u543e\u4e4b\u521d\u5fc3\uff0c\u6c38\u4e16\u4e0d\u5fd8\u3002,\u03a3\u03bf\u03c5 \u03b1\u03c1\u03ad\u03c3\u03c9,18\u5c81\u7684\u5c0f\u8f69\u5b50,
p3490
NNNtp3491
sg950
(V\u6709\u4f60\u66f4\u7cbe\u5f69
p3492
I1
V\u6cb3\u5317
p3493
V\u77f3\u5bb6\u5e84
p3494
tp3495
sg952
(V\u5927G.
p3496
I1
V\u6cb3\u5357
p3497
V\u5546\u4e18
p3498
tp3499
sg954
(V\u300e\u65b9\u5f97\u59cb\u7ec8\u300f
p3500
I2
V\u6cb3\u5357
p3501
V\u9a7b\u9a6c\u5e97
p3502
tp3503
sg956
(V
p3504
I2
VBanten
p3505
g1825
tp3506
sg958
(V\u795e\u9a6c\u90fd\u662f\u6d6e\u4e91
p3507
I2
V\u5e7f\u4e1c
p3508
V\u4e1c\u839e
p3509
tp3510
sg960
(VC. xin H
p3511
I1
V\u6d59\u6c5f
p3512
V\u91d1\u534e
p3513
tp3514
sg962
(V\u5f90\u59d0
p3515
I0
g1825
g1825
tp3516
sg964
(V\u5c0f\u9cc4\u9c7c\u5403\u8c46\u5305
p3517
I0
g1825
g1825
tp3518
sg966
(V\u5c0f\u888b\u9f20
p3519
I2
V\u6cb3\u5357
p3520
V\u5546\u4e18
p3521
tp3522
sg968
(V\u674e\u6654\u6797
p3523
I2
V\u5317\u4eac
p3524
V\u6d77\u6dc0
p3525
tp3526
sg970
(V\u5e7a\u516d\u96f6\u4f0d
p3527
I1
g1825
g1825
tp3528
sg972
(V\u4f55\u4fca\u6797
p3529
I0
V\u5317\u4eac
p3530
V\u6d77\u6dc0
p3531
tp3532
sg974
(V\u9177\u73a9\u5b9e\u9a8c\u5ba4
p3533
I0
V\u5317\u4eac
p3534
V\u671d\u9633
p3535
tp3536
sg976
(V\u98df\u5c1a\u4e00\u8f69\u996e\u98df\u53d1\u5c55\u670d\u52a1\u516c\u53f8
p3537
I1
V\u5b89\u5fbd
p3538
V\u5b89\u5e86
p3539
tp3540
sg978
(V\u5c0f\u9ed1\u683c\u5b50\u5c4b
p3541
I0
V\u5317\u4eac
p3542
V\u660c\u5e73
p3543
tp3544
sg980
(V\u6211\u7b80\u76f4\u662f\u4e2a\u5723\u4eba
p3545
I0
V\u5317\u4eac
p3546
V\u671d\u9633
p3547
tp3548
sg982
(V\u6e38\u79bb
p3549
I1
V\u6cb3\u5317
p3550
V\u77f3\u5bb6\u5e84
p3551
tp3552
sg984
(Vsolely\u4e36only
p3553
I1
V\u9655\u897f
p3554
V\u897f\u5b89
p3555
tp3556
sg986
(V\U0001f47c\U0001f3fb\u6960\u6960
p3557
I2
V\u6cb3\u5317
p3558
V\u77f3\u5bb6\u5e84
p3559
tp3560
sg988
(V\u8377\u5170\u4e73\u725b
p3561
I0
V\u4e0a\u6d77
p3562
V\u6d66\u4e1c\u65b0\u533a
p3563
tp3564
sg990
(VJeffrey Han
p3565
I1
V\u5317\u4eac
p3566
V\u671d\u9633
p3567
tp3568
sg992
(V\u5c0f\u96ea
p3569
I1
V\u6cb3\u5357
p3570
V\u5546\u4e18
p3571
tp3572
sg994
(V\u5206\u671f\u4e50
p3573
I0
V\u5e7f\u4e1c
p3574
g1825
tp3575
sg996
(V\u5143\u6c14\u6ee1\u6ee1\u7684\u6b63\u80fd\u91cf\u5c11\u5973\U0001f495
p3576
I2
VDubayy
p3577
g1825
tp3578
sg998
(V\u60e0\u5b50 Miya
p3579
I2
V\u4e0a\u6d77
p3580
V\u6d66\u4e1c\u65b0\u533a
p3581
tp3582
sg1000
(V\u5434\u5b5f\u5176
p3583
I1
V\u5317\u4eac
p3584
V\u6d77\u6dc0
p3585
tp3586
sg1002
(V\u5927\u5b66\u4e4b\u5927
p3587
I0
V\u6cb3\u5357
p3588
V\u90d1\u5dde
p3589
tp3590
sg1004
(V\u5f90\u5f90\u6e05\u98ce\uff0c\u6f47\u6f47\u6d41\u6c34
p3591
I1
g1825
g1825
tp3592
sg1006
(Vbeing'-\u660e\u660e\u25c7
p3593
I1
V\u5317\u4eac
p3594
V\u6d77\u6dc0
p3595
tp3596
sg1008
(VEve
p3597
I2
g1825
g1825
tp3598
sg1010
(V\u62fc\u591a\u591a
p3599
I0
V\u4e0a\u6d77
p3600
V\u957f\u5b81
p3601
tp3602
sg1012
(V\u9a6c\u5230\u6210\u529f
p3603
I1
V\u6cb3\u5357
p3604
V\u5546\u4e18
p3605
tp3606
sg1014
(V\u5c0f\u82f9\u679c
p3607
I2
V\u6cb3\u5357
p3608
V\u90d1\u5dde
p3609
tp3610
sg1016
(V\u6709\u9053\u7cbe\u54c1\u8bfe
p3611
I0
V\u5317\u4eac
p3612
V\u6d77\u6dc0
p3613
tp3614
sg1018
(VPreety*CX
p3615
I2
g1825
g1825
tp3616
sg1020
(V\u4fe1\u5b89\u4e4b\u8def
p3617
I0
V\u5c71\u897f
p3618
V\u957f\u6cbb
p3619
tp3620
sg1022
(V\u554a\u8463\u9753\u53f715839039039
p3621
I1
V\u6cb3\u5357
p3622
V\u5546\u4e18
p3623
tp3624
sg1024
(V\u65b9\u5706\u56fe\u6587
p3625
I2
V\u5317\u4eac
p3626
V\u660c\u5e73
p3627
tp3628
sg1026
(V\u4e00\u661f\u671f\u4e00\u672c\u4e66
p3629
I0
V\u5317\u4eac
p3630
g1825
tp3631
sg1028
(V\u516c\u4f17\u5e73\u53f0\u5b89\u5168\u52a9\u624b
p3632
I0
V\u5e7f\u4e1c
p3633
V\u5e7f\u5dde
p3634
tp3635
sg1030
(V\u5929\u7a7a\u4e0d\u7a7a
p3636
I1
V\u6cb3\u5317
p3637
V\u77f3\u5bb6\u5e84
p3638
tp3639
sg1032
(V\u8f69\u4e3d
p3640
I2
V\u6cb3\u5357
p3641
V\u5546\u4e18
p3642
tp3643
sg1034
(V\u5f20\u9732\u6676
p3644
I2
V\u6cb3\u5317
p3645
V\u77f3\u5bb6\u5e84
p3646
tp3647
sg1036
(V\u8537\u8587\u6740\u624b
p3648
I2
V\u4e0a\u6d77
p3649
g1825
tp3650
sg1038
(V\u4f18\u6bd4\u7279\u8d44\u8baf
p3651
I0
V\u6c5f\u82cf
p3652
V\u5f90\u5dde
p3653
tp3654
sg1040
(V\u4f20\u667a\u64ad\u5ba2\u535a\u5b66\u8c37
p3655
I0
V\u5317\u4eac
p3656
V\u6d77\u6dc0
p3657
tp3658
sg1042
(V\U0001f495\u7cd6\u7cd6\u5988\u5988\U0001f483\U0001f483
p3659
I2
V\u6cb3\u5357
p3660
V\u5546\u4e18
p3661
tp3662
sg1044
(V\u8d75\u5fd7\u6148
p3663
I0
g1825
g1825
tp3664
sg1046
(V\u560e\u560e \U0001f49e
p3665
I2
g1825
g1825
tp3666
sg1048
(Vkyrie
p3667
I1
V\u4e0a\u6d77
p3668
g1825
tp3669
sg1050
(V\u9646\u4e3a
p3670
I1
V\u5e7f\u4e1c
p3671
V\u6df1\u5733
p3672
tp3673
sg1052
(Venter
p3674
I1
V\u6cb3\u5357
p3675
V\u90d1\u5dde
p3676
tp3677
sg1054
(V\u6c38\u8446\u519b\u4eba\u672c\u8272
p3678
I1
g1825
g1825
tp3679
sg1056
(V\u5fae\u4fe1\u8fd0\u52a8
p3680
I0
V\u5e7f\u4e1c
p3681
V\u5e7f\u5dde
p3682
tp3683
sg1058
(V\u4eba\u751f
p3684
I1
V\u5317\u4eac
p3685
V\u4e30\u53f0
p3686
tp3687
sg1060
(V\u4e24\u9897\u897f\u67da
p3688
I2
V\u91cd\u5e86
p3689
V\u74a7\u5c71
p3690
tp3691
sg1062
(V\u4e92\u91d1\u548c\u91d1\u878d\u4ea7\u54c1\u76d1\u6d4b\u9884\u8b66\u9879\u76ee\u7ec4
p3692
NNNtp3693
sg1064
(V\u4f60\u731c
p3694
I1
V\u6cb3\u5357
p3695
V\u5546\u4e18
p3696
tp3697
sg1066
(V\u660e\u5929\u4f60\u597d\u2121
p3698
I2
V\u6cb3\u5357
p3699
V\u4fe1\u9633
p3700
tp3701
sg1068
(V\u4e2d\u901a\u5feb\u9012
p3702
I0
V\u4e0a\u6d77
p3703
V\u9752\u6d66
p3704
tp3705
sg1070
(V\u5bb6
p3706
NNNtp3707
sg1072
(VYou are right
p3708
I1
V\u6cb3\u5357
p3709
V\u5546\u4e18
p3710
tp3711
sg1074
(VMokesn
p3712
I1
V\u4e0a\u6d77
p3713
g1825
tp3714
sg1076
(V\u7cbe\u5f69\u7f8e\u6587\u8bed\u5f55
p3715
I0
V\u5317\u4eac
p3716
V\u671d\u9633
p3717
tp3718
sg1078
(V\u7f51\u8d37\u90a3\u4e9b\u4e8b\u513f
p3719
I0
V\u4e0a\u6d77
p3720
V\u6d66\u4e1c\u65b0\u533a
p3721
tp3722
sg1080
(V\U0001f4ad\U0001f4ad\u6084\u6084\u7684
p3723
I1
V\u6cb3\u5317
p3724
V\u77f3\u5bb6\u5e84
p3725
tp3726
sg1082
(V\u2747\u4e91\u6de1\u98ce\u8f7b\U0001f4a4
p3727
I1
V\u5c71\u4e1c
p3728
V\u6dc4\u535a
p3729
tp3730
sg1084
(VA\u0f3a\u0f00\u98de\u626c\u0f12\u7a00\u7f3a\u7269\u54c1 \u5546\u8d38\u0f7a\u0f04\u3002
p3731
I2
V\u6c5f\u82cf
p3732
V\u5357\u4eac
p3733
tp3734
sg1086
(V\u6211\u59d3\u9b4f
p3735
I2
V\u6cb3\u5357
p3736
V\u5546\u4e18
p3737
tp3738
sg1088
(V\u4e11\u5974\u513f
p3739
I1
V\u4e0a\u6d77
p3740
V\u5609\u5b9a
p3741
tp3742
sg1090
(Vlandy
p3743
I2
V\u4e0a\u6d77
p3744
V\u6d66\u4e1c\u65b0\u533a
p3745
tp3746
sg1092
(VA00000\u32a3\u8ba9\u5fc3\u5f52\u96f6\u534d
p3747
I1
V\u6cb3\u5357
p3748
V\u90d1\u5dde
p3749
tp3750
sg1094
(V\u5415\u57f9
p3751
I0
g1825
g1825
tp3752
sg1096
(VAncestor 
p3753
I1
V\u6cb3\u5357
p3754
V\u5546\u4e18
p3755
tp3756
sg1098
(V\u5475\u5475\u54d2
p3757
I1
V\u6cb3\u5357
p3758
V\u5546\u4e18
p3759
tp3760
sg1100
(VAngelia
p3761
I2
V\u5c71\u4e1c
p3762
V\u6d4e\u5357
p3763
tp3764
sg1102
(V\u4e92\u8054\u7f51\u601d\u7ef4
p3765
I0
V\u5317\u4eac
p3766
g1825
tp3767
sg1104
(V\u7f8e\u56e2\u5916\u5356
p3768
I0
V\u5317\u4eac
p3769
g1825
tp3770
sg1106
(V\u60f9\u4eba\u7231 Triste
p3771
I2
V\u6cb3\u5317
p3772
V\u8861\u6c34
p3773
tp3774
sg1108
(V\u9ed8\u9ed8\u5927\u4eba
p3775
I0
V\u5e7f\u4e1c
p3776
V\u5e7f\u5dde
p3777
tp3778
sg1110
(V\u4e58\u98ce\u7834\u6d6a
p3779
I1
V\u6cb3\u5357
p3780
V\u5e73\u9876\u5c71
p3781
tp3782
sg1112
(Vcary
p3783
I1
V\u4e0a\u6d77
p3784
V\u6d66\u4e1c\u65b0\u533a
p3785
tp3786
sg1114
(V\u6b87
p3787
I1
g1825
g1825
tp3788
sg1116
(V\u7c73\u7c73\u679c\u679c
p3789
I2
V\u4e0a\u6d77
p3790
g1825
tp3791
sg1118
(V\u8427\u58a8
p3792
I2
V\u5317\u4eac
p3793
V\u671d\u9633
p3794
tp3795
sg1120
(V\u65c5\u884c
p3796
I1
V\u5c71\u4e1c
p3797
g1825
tp3798
sg1122
(V\u94f6\u5343\u60e0
p3799
I0
V\u798f\u5efa
p3800
V\u798f\u5dde
p3801
tp3802
sg1124
(V\u516d\u70b9\u534a
p3803
I1
V\u5317\u4eac
p3804
g1825
tp3805
sg1126
(VXnr
p3806
NNNtp3807
sg1128
(V\u4e00\u751f\u5e73\u5b89
p3808
I1
V\u6cb3\u5357
p3809
V\u5546\u4e18
p3810
tp3811
sg1130
(V\u6ca1\u90a3\u4e48\u7b80\u5355
p3812
I1
V\u6cb3\u5357
p3813
V\u5546\u4e18
p3814
tp3815
sg1132
(V\u5415\u76fc
p3816
I1
V\u6cb3\u5317
p3817
V\u77f3\u5bb6\u5e84
p3818
tp3819
sg1134
(V\U0001f397KEVIN.ZHANG
p3820
I1
V\u5e7f\u4e1c
p3821
V\u6df1\u5733
p3822
tp3823
sg1136
(V\u5927\u9e4c\u9e51
p3824
I0
V\u5409\u6797
p3825
V\u957f\u6625
p3826
tp3827
sg1138
(VAI\u79d1\u6280\u5927\u672c\u8425
p3828
I0
V\u5317\u4eac
p3829
V\u6d77\u6dc0
p3830
tp3831
sg1140
(V\u98ce\u6e05
p3832
I2
V\u6cb3\u5357
p3833
V\u5546\u4e18
p3834
tp3835
sg1142
(V\u5f6d\u6c49\u7530
p3836
I1
V\u4e0a\u6d77
p3837
V\u6d66\u4e1c\u65b0\u533a
p3838
tp3839
sg1144
(V\u5f00\u5fc3\u6d0b\u6d0b
p3840
I1
V\u6cb3\u5357
p3841
V\u4e09\u95e8\u5ce1
p3842
tp3843
sg1146
(V\u6709\u6897
p3844
I0
V\u5e7f\u4e1c
p3845
V\u5e7f\u5dde
p3846
tp3847
sg1148
(V\u60c5\u667a\u8bfb\u5199\u5802
p3848
I0
V\u56db\u5ddd
p3849
V\u7ef5\u9633
p3850
tp3851
sg1150
(V\u5361\u8010\u57fa\u53e3\u624d
p3852
I0
V\u5e7f\u4e1c
p3853
g1825
tp3854
sg1152
(V\u7eaf
p3855
I2
V\u5e7f\u4e1c
p3856
V\u63ed\u9633
p3857
tp3858
sg1154
(VAkechi Xue
p3859
I1
g1825
g1825
tp3860
sg1156
(V\u4e9a
p3861
I1
V\u6e56\u5317
p3862
V\u6b66\u6c49
p3863
tp3864
sg1158
(Vwxxnr\u6d4b\u8bd5\u7fa41
p3865
NNNtp3866
sg1160
(V\u94b1\u5496
p3867
I0
V\u4e0a\u6d77
p3868
V\u9ec4\u6d66
p3869
tp3870
sg1162
(V\u83f2\u83f2\u5c0f\u5b81
p3871
I2
V\u5317\u4eac
p3872
V\u671d\u9633
p3873
tp3874
sg1164
(V\u8f69\u8f95\u4e91\u52a8
p3875
I1
V\u5317\u4eac
p3876
V\u6d77\u6dc0
p3877
tp3878
sg1166
(V\u82b1\u961f\u957f
p3879
I1
V\u5e7f\u4e1c
p3880
V\u5e7f\u5dde
p3881
tp3882
sg1168
(V\u7a0b\u5e8f\u89c6\u754c
p3883
I0
V\u9655\u897f
p3884
V\u897f\u5b89
p3885
tp3886
sg1170
(V\u5b87\u5b99\u597d\u7537\u4eba
p3887
I1
V\u6cb3\u5317
p3888
V\u77f3\u5bb6\u5e84
p3889
tp3890
sg1172
(V\u5929\u54e6\u6728\u6709
p3891
I2
V\u5e7f\u4e1c
p3892
V\u5e7f\u5dde
p3893
tp3894
sg1174
(V\u7231\u534e
p3895
I2
V\u6cb3\u5357
p3896
V\u5f00\u5c01
p3897
tp3898
sg1176
(VSunshine\U0001f4e2
p3899
I1
V\u5317\u4eac
p3900
V\u6d77\u6dc0
p3901
tp3902
sg1178
(V\u54aa\u8c46
p3903
I2
V\u6cb3\u5357
p3904
V\u5546\u4e18
p3905
tp3906
sg1180
(V\u5927\u5c71\u679c\u519c
p3907
I0
V\u4e91\u5357
p3908
V\u5927\u7406
p3909
tp3910
sg1182
(V123456
p3911
I1
V\u6cb3\u5317
p3912
V\u77f3\u5bb6\u5e84
p3913
tp3914
sg1184
(V\u98de\u603b\u804aIT
p3915
I0
VWashington
p3916
VSeattle
p3917
tp3918
sg1186
(V\u5415\u8fbe
p3919
I1
g1825
g1825
tp3920
sg1188
(V\u5c0f\u9a6c\u54e5
p3921
I1
V\u4e91\u5357
p3922
V\u6606\u660e
p3923
tp3924
sg1190
(V\u5200\u5203\u513f
p3925
I2
V\u6cb3\u5357
p3926
V\u8bb8\u660c
p3927
tp3928
sg1192
(V\u591c\u591c\u4e66\u9986
p3929
I0
V\u5e7f\u4e1c
p3930
V\u5e7f\u5dde
p3931
tp3932
sg1194
(V\u7a0b\u5e8f\u4eba\u751f
p3933
I0
V\u5317\u4eac
p3934
V\u671d\u9633
p3935
tp3936
sg1196
(VCSDN\u4f01\u4e1a\u62db\u8058
p3937
I0
V\u5317\u4eac
p3938
V\u671d\u9633
p3939
tp3940
sg1198
(VAi\u6cb3\u5357\u672a\u6765\u96ea\u4f5b\u5170\u670d\u52a1\u987e\u95ee\u5f20\u70af\u70af
p3941
I1
V\u6cb3\u5357
p3942
V\u5546\u4e18
p3943
tp3944
sg1200
(VAO\u667a\u4fe1\U0001f3c6\u4eae\u5251\u7cfb\u7edf\u8054\u5408\u521b\u59cb\u4eba
p3945
I1
V\u5317\u4eac
p3946
g1825
tp3947
sg1202
(V\u4e30\u5de2\u667a\u80fd\u67dc
p3948
I0
V\u5e7f\u4e1c
p3949
V\u6df1\u5733
p3950
tp3951
sg1204
(V\u90a3\u4e9b\u4f60\u4e0d\u6562\u8bf4\u7684\u79d8\u5bc6
p3952
I0
V\u5317\u4eac
p3953
V\u671d\u9633
p3954
tp3955
sg1206
(VAA@\u5bb6\u5177\u7f8e\u5bb9\u7ef4\u4fee@AA\U0001f48b18232127182
p3956
I1
V\u6cb3\u5317
p3957
V\u77f3\u5bb6\u5e84
p3958
tp3959
sg1208
(V\u5b59\u5c0f\u8d85@DAEX
p3960
I1
V\u4e0a\u6d77
p3961
V\u6d66\u4e1c\u65b0\u533a
p3962
tp3963
sg1210
(V\u6697\u91cc\u7740\u8ff7
p3964
I2
V\u56db\u5ddd
p3965
V\u6210\u90fd
p3966
tp3967
sg1212
(V\U0001f47a\u72ec\u5b64\u4e5d\u5251 \U0001f479
p3968
I1
V\u8fbd\u5b81
p3969
V\u846b\u82a6\u5c9b
p3970
tp3971
sg1214
(V\u5f80\u4e8b\u53ea\u80fd\u56de\u5473
p3972
I1
V\u6cb3\u5357
p3973
V\u90d1\u5dde
p3974
tp3975
sg1216
(V\u9501\u5fc3
p3976
I2
V\u6cb3\u5357
p3977
V\u5546\u4e18
p3978
tp3979
sg1218
(V\u4e11\u4eba\u591a\u4f5c\u602a
p3980
I1
V\u5317\u4eac
p3981
V\u6d77\u6dc0
p3982
tp3983
sg1220
(VAxure\u4e2d\u6587\u7f51
p3984
I0
V\u5317\u4eac
p3985
V\u660c\u5e73
p3986
tp3987
sg1222
(V\u661f\u88d5(\u96c6\u56e2)\u77f3\u4e1a\u9f9a\u9f50\u94c3
p3988
I1
V\u4e0a\u6d77
p3989
V\u6d66\u4e1c\u65b0\u533a
p3990
tp3991
sg1224
(V\u96f6\u8d2d\u5b98\u7f51
p3992
I0
V\u6c5f\u82cf
p3993
V\u82cf\u5dde
p3994
tp3995
sg1226
(V\u5b5f\u5b9d\u4eae
p3996
I1
V\u5317\u4eac
p3997
g1825
tp3998
sg1230
(V\u65e7\u65f6\u5149\u65c5\u8bb0
p3999
I0
V\u6c5f\u82cf
p4000
V\u6cf0\u5dde
p4001
tp4002
sg1232
(V\u5475\u5475\u54d2
p4003
I2
V\u5317\u4eac
p4004
g1825
tp4005
sg1234
(V8#-1-602
p4006
NNNtp4007
sg1236
(V\u62db\u8d22\u732b
p4008
I2
V\u5e7f\u4e1c
p4009
V\u6df1\u5733
p4010
tp4011
sg1238
(V\u770b\u98ce\u666f
p4012
I1
V\u6d59\u6c5f
p4013
V\u91d1\u534e
p4014
tp4015
sg1240
(Vdream
p4016
I1
V\u6cb3\u5317
p4017
V\u90a2\u53f0
p4018
tp4019
sg1242
(V\u52a0\u56fd\u65e0\u5fe7
p4020
I0
VToronto
p4021
g1825
tp4022
sg1244
(VPython\u4e2d\u6587\u793e\u533a
p4023
I0
V\u5317\u4eac
p4024
V\u4e1c\u57ce
p4025
tp4026
sg1246
(V\u6cb3\u5357\u534e\u83b1\u58eb
p4027
I0
V\u6cb3\u5357
p4028
V\u90d1\u5dde
p4029
tp4030
sg1248
(V\u5c0f\u5f20\u70df\u884c
p4031
I1
V\u798f\u5efa
p4032
V\u6f33\u5dde
p4033
tp4034
sg1250
(V\u627e\u4e2a\u597d\u5ab3\u5987\u7a7f\u978b\u90fd\u8212\u670d
p4035
I1
V\u7518\u8083
p4036
V\u5170\u5dde\u5e02
p4037
tp4038
sg1252
(V\u964c\u4e0a\u9752\u8863\u5ba2
p4039
I1
V\u8fbd\u5b81
p4040
V\u6c88\u9633
p4041
tp4042
sg1254
(VI will
p4043
I2
V\u6cb3\u5357
p4044
V\u90d1\u5dde
p4045
tp4046
sg1256
(V\u5434\u6cfd\u7a33
p4047
I1
V\u4e0a\u6d77
p4048
V\u5f90\u6c47
p4049
tp4050
sg1258
(V\u4e00\u5341\u8001\u5e08(\u6f6d\u5dde\u6559\u80b2python\u8001\u5e08
p4051
I1
V\u6e56\u5357
p4052
V\u957f\u6c99
p4053
tp4054
sg1260
(V\u7cbe\u5f69\u6709\u610f\u601d
p4055
I0
V\u5c71\u4e1c
p4056
V\u6f4d\u574a
p4057
tp4058
sg1262
(V\u9022
p4059
I2
V\u5317\u4eac
p4060
V\u6d77\u6dc0
p4061
tp4062
sg1264
(V\u5c71\u4e0b\u6885\u5b50\u9152
p4063
I2
V\u6cb3\u5317
p4064
V\u5510\u5c71
p4065
tp4066
sg1266
(V\u5468\u5927\u8c46\U0001f451
p4067
I2
V\u6d59\u6c5f
p4068
V\u676d\u5dde
p4069
tp4070
sg1268
(V\u5fae\u4fe1\u5361\u5305
p4071
I0
V\u5e7f\u4e1c
p4072
V\u5e7f\u5dde
p4073
tp4074
sg1270
(V\u7fbd\u4e2d\u6f2b\u6b65
p4075
I1
g1825
g1825
tp4076
sg1272
(V\u6c11\u58f0\u9891\u9053
p4077
I0
V\u6cb3\u5357
p4078
V\u5546\u4e18
p4079
tp4080
sg1274
(V\u88c5\u903c\u624b\u518c
p4081
I0
V\u6cb3\u5357
p4082
V\u6d1b\u9633
p4083
tp4084
sg1276
(V\u559c\u6b22\u841d\u535c\u7684\u888b\u9f20
p4085
I2
V\u6cb3\u5317
p4086
V\u77f3\u5bb6\u5e84
p4087
tp4088
sg1278
(V\u738b\u82e5\u7fd4
p4089
I1
V\u6cb3\u5357
p4090
V\u6d1b\u9633
p4091
tp4092
sg1280
(V\u9b3c\u513f
p4093
I0
V\u5317\u4eac
p4094
V\u660c\u5e73
p4095
tp4096
sg1282
(V\U0001f41d
p4097
I1
V\u4e0a\u6d77
p4098
g1825
tp4099
sg1284
(VWeLens
p4100
I0
V\u5317\u4eac
p4101
V\u4e1c\u57ce
p4102
tp4103
sg1286
(V\u4e92\u91d1\u524d\u7aef\u5f00\u53d1
p4104
NNNtp4105
sg1288
(V\u9047\u89c1
p4106
I2
V\u6cb3\u5357
p4107
V\u5546\u4e18
p4108
tp4109
sg1290
(V48\u5c0f\u65f6CP
p4110
I0
V\u5317\u4eac
p4111
V\u671d\u9633
p4112
tp4113
sg1292
(V\u7a0b\u5e8f\u5458\u5c0f\u7070
p4114
I0
V\u5317\u4eac
p4115
V\u671d\u9633
p4116
tp4117
sg1294
(V\u6211\u4e0d\u662f\u7d22\u9a6c\u91cc
p4118
I1
g1825
g1825
tp4119
sg1296
(V\u6700\u597d\u7684\u6211
p4120
I2
g1825
g1825
tp4121
sg1298
(V\u672a\u5a5a\u5988\u5988\u5bb6\U0001f33b \u6f6e\u978b\u7279\u4ef7\u798f\u5229 \U0001f60d
p4122
I2
V\u798f\u5efa
p4123
V\u8386\u7530
p4124
tp4125
sg1300
(V\U0001f48b \u6731\u6731\U0001f48b
p4126
I2
V\u4e0a\u6d77
p4127
V\u95f5\u884c
p4128
tp4129
sg1302
(V\u5f20\u4e9a\u661f
p4130
NNNtp4131
sg1304
(V\u672c\u4eba\u5c31\u662f\u729f
p4132
I2
V\u5317\u4eac
p4133
g1825
tp4134
sg1306
(V\u5a31\u4e50\u6bd2\u820c
p4135
I0
V\u5e7f\u4e1c
p4136
V\u6df1\u5733
p4137
tp4138
sg1308
(V\u4e94\u5473\u4eba\u751f
p4139
I1
g1825
g1825
tp4140
sg1310
(V\u95ee\u7b54\u7cbe\u7075
p4141
I0
V\u5317\u4eac
p4142
V\u660c\u5e73
p4143
tp4144
sg1312
(V\u6842\u8f89
p4145
I1
g1825
g1825
tp4146
sg1314
(V\u55ef
p4147
I1
V\u6e56\u5357
p4148
V\u5cb3\u9633
p4149
tp4150
sg1316
(V\u91d1\u8292\u679c\u8d75\u5706\u570615587200889
p4151
I2
V\u4e91\u5357
p4152
V\u6606\u660e
p4153
tp4154
sg1318
(V\u9526\u534e
p4155
I2
g1825
g1825
tp4156
sg1320
(V\u9ea6\u529b\u6dfb\u80fd
p4157
I0
V\u4e0a\u6d77
p4158
V\u5f90\u6c47
p4159
tp4160
sg1322
(V\u59dc\u6ce1\u6ce1\U0001f1ea\U0001f1f8
p4161
I2
V\u4e0a\u6d77
p4162
V\u5f90\u6c47
p4163
tp4164
sg1324
(V\u7f8e\u56e2\u4f17\u5305
p4165
I0
V\u5317\u4eac
p4166
V\u671d\u9633
p4167
tp4168
sg1326
(VSHIJINGJING\u4e36
p4169
I2
V\u7518\u8083
p4170
g1825
tp4171
sg1328
(VDayDayUp
p4172
I1
VDubayy
p4173
g1825
tp4174
sg1330
(VOpenStack
p4175
I0
V\u5317\u4eac
p4176
V\u6d77\u6dc0
p4177
tp4178
sg1332
(V\u8584\u8377\u52a0\u7cd6\U0001f436 \U0001f436 \U0001f436
p4179
I1
g1825
g1825
tp4180
sg1334
(V\u5168\u6c11\u7b7e\u5230\u63a8\u5427
p4181
I0
V\u5e7f\u4e1c
p4182
V\u63ed\u9633
p4183
tp4184
sg1336
(VPython\u7a0b\u5e8f\u5458
p4185
I0
V\u6e56\u5317
p4186
V\u6b66\u6c49
p4187
tp4188
sg1338
(VRotoava
p4189
I0
V\u4e0a\u6d77
p4190
V\u6d66\u4e1c\u65b0\u533a
p4191
tp4192
sg1340
(V\u5927\u5e05\u7092\u996d
p4193
I1
g1825
g1825
tp4194
sg1342
(V\u6768\u6770
p4195
I1
V\u5c71\u4e1c
p4196
V\u6d4e\u5357
p4197
tp4198
sg1344
(V\u8be5\u5e10\u53f7\u5df2\u6ce8\u9500
p4199
I0
V\u4e0a\u6d77
p4200
V\u5362\u6e7e
p4201
tp4202
sg1346
(V\u53ef\u70b9\u79d1\u6280
p4203
I0
V\u4e0a\u6d77
p4204
V\u6d66\u4e1c\u65b0\u533a
p4205
tp4206
sg1348
(VAHA\U0001f1fa\U0001f1f8 Unknown
p4207
I1
g1825
g1825
tp4208
sg1350
(V\u6c38\u5f00\u9ebb\u8fa3\u72d7\u8089\u9986\U0001f436
p4209
NNNtp4210
sg1352
(VF\u7f8e\u98df\u5403\u8d27\u56e2
p4211
I0
V\u5317\u4eac
p4212
V\u671d\u9633
p4213
tp4214
sg1354
(V--\u5ff5.
p4215
I1
V\u6cb3\u5357
p4216
V\u5546\u4e18
p4217
tp4218
sg1356
(V\u5468\u8c6a15738105128
p4219
I1
g1825
g1825
tp4220
sg1358
(VTinian Chor
p4221
I1
VNASA\u706b\u661f\u5730\u8868\u592a\u7a7a\u7ad9 \U0001f680
p4222
g1825
tp4223
sg1360
(Vtestwx
p4224
NNNtp4225
sg1362
(V\u591c\u591c.
p4226
I1
g1825
g1825
tp4227
sg1364
(V\u8f69\u745e
p4228
I2
V\u6cb3\u5357
p4229
V\u5546\u4e18
p4230
tp4231
sg1366
(V\u76f8\u9047
p4232
I2
g1825
g1825
tp4233
sg1368
(V\u7d2b\u971e\u4ed9\u5b50
p4234
I2
V\u6d59\u6c5f
p4235
V\u676d\u5dde
p4236
tp4237
sg1370
(V\u4e2d\u56fd\u5de5\u5546\u94f6\u884c\u7535\u5b50\u94f6\u884c
p4238
I0
V\u5317\u4eac
p4239
g1825
tp4240
sg1372
(Vsoul
p4241
I2
VVictoria
p4242
VMelbourne
p4243
tp4244
sg1374
(V\u4e2d\u56fd\u79fb\u52a810086
p4245
I0
V\u5317\u4eac
p4246
V\u897f\u57ce
p4247
tp4248
sg1376
(VMiranA\u6b64\u53f7\u6ee1\u8bf7\u52a018137100770
p4249
I2
V\u6cb3\u5357
p4250
V\u90d1\u5dde
p4251
tp4252
sg1378
(V\u672a\u547d\u540d
p4253
I1
V\u5c71\u897f
p4254
V\u4e34\u6c7e
p4255
tp4256
sg1380
(V\u53cc\u6c47@\u590f
p4257
I1
V\u6cb3\u5357
p4258
V\u5546\u4e18
p4259
tp4260
sg1382
(V\u5927\u7537\u5b69
p4261
I1
VClare
p4262
g1825
tp4263
sg1384
(V\u5b64\u57ce\u51c9\u68a6\u7f04\u9ed8\u65f6
p4264
I1
V\u7518\u8083
p4265
V\u5e86\u9633
p4266
tp4267
sg1386
(V\u77e5\u8db3\u5e38\u4e50
p4268
I2
V\u6e56\u5317
p4269
V\u9ec4\u77f3
p4270
tp4271
sg1388
(V\u56fd\u946b\u6240\u5fae\u670d\u52a1
p4272
I0
V\u4e0a\u6d77
p4273
V\u6d66\u4e1c\u65b0\u533a
p4274
tp4275
sg1390
(V\u97f5\u8fbe\u5feb\u9012
p4276
I0
V\u4e0a\u6d77
p4277
V\u9752\u6d66
p4278
tp4279
sg1392
(V\u5c0f\u8d1d
p4280
I2
VOrleans
p4281
g1825
tp4282
sg1394
(V\u9a86\u4e3d\u541b
p4283
I2
V\u6cb3\u5317
p4284
V\u77f3\u5bb6\u5e84
p4285
tp4286
sg1396
(V\u82b1\u5f00\u82b1\u843d
p4287
I2
V\u6cb3\u5357
p4288
V\u9e64\u58c1
p4289
tp4290
sg1398
(V\u50bb\u5b50\u8d85\u5e02
p4291
I0
V\u6cb3\u5357
p4292
V\u5546\u4e18
p4293
tp4294
sg1400
(V\u4e00\u79d2\u7b11\u62bd\u7ecf
p4295
I0
V\u6cb3\u5357
p4296
V\u5546\u4e18
p4297
tp4298
sg1402
(V-\u81ed\u81ed
p4299
I1
g1825
g1825
tp4300
sg1404
(V\u67f3\u73c2\u73c2
p4301
I2
g1825
g1825
tp4302
sg1406
(V\u7f8e\u5473\u4e0d\u7528\u7b49
p4303
I0
V\u4e0a\u6d77
p4304
V\u6d66\u4e1c\u65b0\u533a
p4305
tp4306
sg1408
(V\u03a3\u03bf\u03c5 \u03b1\u03c1\u03ad\u03c3\u03c9
p4307
I1
S''
p4308
g4308
tp4309
sg1410
(V\u6559\u5e08\u4e4b\u68a6
p4310
I0
V\u5317\u4eac
p4311
V\u6d77\u6dc0
p4312
tp4313
sg1412
(V\u9752\u6625\u5c81\u6708\u2014\u56db\u4e8c\u4e8c
p4314
NNNtp4315
sg1414
(V\u4e0d\u53ef\u601d\u8bae\u7684\u5988\u5988\u5927\u672c\u8425
p4316
I0
V\u5317\u4eac
p4317
V\u671d\u9633
p4318
tp4319
sg1416
(V.
p4320
I1
V\u5317\u4eac
p4321
V\u6d77\u6dc0
p4322
tp4323
sg1418
(V\u5c0f\u4e2b\u67df\u5b50
p4324
I2
V\u6cb3\u5357
p4325
V\u6d1b\u9633
p4326
tp4327
sg1420
(V\u67d2*^O^*\u67d2
p4328
I1
V\u6cb3\u5357
p4329
V\u5546\u4e18
p4330
tp4331
sg1422
(V\u7537\u4eba\u591a\u770b\u597d\u4e66
p4332
I0
V\u6d59\u6c5f
p4333
V\u676d\u5dde
p4334
tp4335
sg1424
(Vzjhr
p4336
I1
V\u6cb3\u5357
p4337
V\u5546\u4e18
p4338
tp4339
sg1426
(V\u7ea2\u708esimida
p4340
I0
g1825
g1825
tp4341
sg1428
(VA0.\u672a\u5a5a\u5988\u5988\u6f6e\u978b\U0001f33c\u4e94\u5e74\u8001\u5e97
p4342
I2
V\u798f\u5efa
p4343
V\u8386\u7530
p4344
tp4345
sg1430
(V\u840d\u6c34\u76f8\u9022
p4346
I2
V\u4e0a\u6d77
p4347
V\u6d66\u4e1c\u65b0\u533a
p4348
tp4349
sg1432
(V\u4e2d\u56fd\u8054\u901a\u5fae\u5385
p4350
I0
V\u5317\u4eac
p4351
V\u897f\u57ce
p4352
tp4353
sg1434
(VZZhen\U0001f338
p4354
I2
VSeoul
p4355
g1825
tp4356
sg1436
(V\u8d85\u8d8a\u5e73\u51e1\u8005\u4e4b\u5bb6
p4357
I0
V\u4e0a\u6d77
p4358
V\u6d66\u4e1c\u65b0\u533a
p4359
tp4360
sg1438
(V\u597d\u5927\u4e00\u5bb6\u4eba
p4361
NNNtp4362
sg1440
(V\u8d85\u7ea7\u9e70
p4363
I0
V\u6cb3\u5317
p4364
V\u6ca7\u5dde
p4365
tp4366
sg1442
(V\u6768\u56ed\u56ed
p4367
I2
g1825
g1825
tp4368
sg930
(V\u9e70\u773c
p4369
I1
V\u4e0a\u6d77
p4370
V\u6d66\u4e1c\u65b0\u533a
p4371
tp4372
sg1446
(VA-\u7476\u7476\u5bb6\U0001f4572\u5e97
p4373
I2
V\u5409\u6797
p4374
V\u957f\u6625
p4375
tp4376
sg1448
(V\u674e\u5a1c
p4377
I2
g1825
g1825
tp4378
sg1450
(V\u4f73\u8c6a
p4379
I1
V\u6cb3\u5357
p4380
V\u90d1\u5dde
p4381
tp4382
sg1452
(V\u5927\u738b\u53eb\u6211\u6765\u5de1\u5c71
p4383
I1
VAbu Dhabi
p4384
g1825
tp4385
sg1454
(V\u6559\u4f60\u5634\u751c\u4f1a\u8bf4\u8bdd
p4386
I0
V\u6cb3\u5317
p4387
V\u90af\u90f8
p4388
tp4389
sg1456
(VLemon
p4390
I2
V\u4e0a\u6d77
p4391
g1825
tp4392
sg1458
(V\u4e2d\u56fd\u5415\u5e84\U0001f1e8\U0001f1f3\U0001f37b\U0001f37b\U0001f37b
p4393
NNNtp4394
sg1460
(V\u5510\u5510\u9891\u9053
p4395
I0
V\u6d59\u6c5f
p4396
V\u676d\u5dde
p4397
tp4398
sg1462
(V\u6c34\u6ef4\u7b79
p4399
I0
V\u5317\u4eac
p4400
V\u671d\u9633
p4401
tp4402
sg1464
(V\u5c0f\u83f2\u513f
p4403
I1
V\u6cb3\u5317
p4404
V\u77f3\u5bb6\u5e84
p4405
tp4406
sg1466
(V\u67d8\u57ce\u665a8\u70b9
p4407
I0
V\u6e56\u5317
p4408
V\u6069\u65bd
p4409
tp4410
sg1468
(V\u8de8\u8d8a   \u81ea\u6211
p4411
I1
V\u6cb3\u5357
p4412
V\u4fe1\u9633
p4413
tp4414
sg1470
(V\u5c0f\u6cf0\u7a7a\u94fa35
p4415
I0
V\u4e0a\u6d77
p4416
V\u5362\u6e7e
p4417
tp4418
sg1472
(V\u8003
p4419
I1
V\u5e7f\u4e1c
p4420
V\u4e2d\u5c71
p4421
tp4422
sg1474
(V\u66b4\u8d70\u77ed\u89c6\u9891
p4423
I0
V\u5e7f\u4e1c
p4424
V\u5e7f\u5dde
p4425
tp4426
sg1476
(V\u7b97\u6cd5\u7231\u597d\u8005
p4427
I0
V\u4e0a\u6d77
p4428
V\u5609\u5b9a
p4429
tp4430
sg1478
(VMark
p4431
I2
g1825
g1825
tp4432
sg1480
(V\u6212\u9a84\u6212\u8e81\uff5e
p4433
I1
VCanberra
p4434
g1825
tp4435
sg1482
(V\u52b2\u4ed4
p4436
I0
V\u6e56\u5357
p4437
V\u5cb3\u9633
p4438
tp4439
sg1484
(V\u888b\u9f20\u6df1\u5ea6\u7cbe\u9009
p4440
I0
V\u5317\u4eac
p4441
V\u6d77\u6dc0
p4442
tp4443
sg1486
(V\u65e0\u5fc3\u7684\u5411\u5f80
p4444
I1
VDubayy
p4445
g1825
tp4446
sg1488
(V) L.L (
p4447
I1
V\u6cb3\u5317
p4448
V\u77f3\u5bb6\u5e84
p4449
tp4450
sg1490
(V\u5f20\u6653
p4451
I2
V\u6cb3\u5317
p4452
V\u77f3\u5bb6\u5e84
p4453
tp4454
sg1492
(V\u8fbe\u8fbe
p4455
I0
V\u4e0a\u6d77
p4456
V\u6d66\u4e1c\u65b0\u533a
p4457
tp4458
sg1494
(VA  $  @\u4e50\u4f9d\u8f69\u5bb6\u5c45
p4459
I1
V\u6cb3\u5357
p4460
V\u5546\u4e18
p4461
tp4462
sg1496
(V\u4e8c\u6708\u7ea2
p4463
I1
V\u5c71\u897f
p4464
V\u8fd0\u57ce
p4465
tp4466
sg1498
(V\u4e00\u5ff5\u4e4b\u95f4
p4467
I2
V\u4e0a\u6d77
p4468
V\u6d66\u4e1c\u65b0\u533a
p4469
tp4470
sg1500
(V\u5fc3\u82e5\u5b89\u597d\u3001\u4fbf\u662f\u6674\u5929
p4471
I2
g1825
g1825
tp4472
sg1502
(Vgxx
p4473
I1
V\u6cb3\u5357
p4474
V\u5546\u4e18
p4475
tp4476
sg1504
(VA\u2728\U0001f430\u5154\u5b50\u978b\u67dc\U0001f430\u2728
p4477
I1
V\u9999\u6e2f
p4478
V\u6c99\u7530\u533a
p4479
tp4480
sg1506
(V\u864e\u9c7c
p4481
I1
V\u6cb3\u5357
p4482
V\u5546\u4e18
p4483
tp4484
sg1508
(Vhxq
p4485
I0
V\u5317\u4eac
p4486
V\u6d77\u6dc0
p4487
tp4488
sg1510
(V\u89c5\u4eac\u57ce
p4489
I0
V\u5c71\u4e1c
p4490
V\u70df\u53f0
p4491
tp4492
sg1512
(V\u90d1\u4e91\u5de5\u4f5c\u5ba4
p4493
I0
V\u5317\u4eac
p4494
V\u671d\u9633
p4495
tp4496
sg1514
(V\u9759\u5b89\U0001f608          \u200d\u5fae\u4fe1\u8d85\u7d1a\u6703\u54e1
p4497
I1
VCork
p4498
g1825
tp4499
sg1516
(VA00000\u5305\u5305\u6253\u542c\u3016\u603b\u53f0\u3017\u6ee1
p4500
I2
V\u6cb3\u5357
p4501
V\u5546\u4e18
p4502
tp4503
sg1518
(V\u9648\u7f8e\u601d
p4504
I2
V\u5e7f\u4e1c
p4505
V\u6f6e\u5dde
p4506
tp4507
sg1520
(VA2\u6df1\u6539\u8f66\u706f\u5347\u7ea7\u4e13\u5bb6\u5510\u5c71\u603b\u90e8\uff5e\u590f\u5b87
p4508
I1
V\u6cb3\u5317
p4509
V\u5510\u5c71
p4510
tp4511
sg1522
(V\u5c0f\uff5e\uff5e\uff5e\u6b63\u4e49
p4512
I2
V\u6cb3\u5357
p4513
V\u5546\u4e18
p4514
tp4515
sg1524
(V\u4eac\u4e1c\u652f\u4ed8
p4516
I0
V\u5317\u4eac
p4517
V\u671d\u9633
p4518
tp4519
sg1526
(V\u4fdd\u536b\u841d\u535c3
p4520
I0
g1825
g1825
tp4521
sg1528
(V\u522b\u8463\u5927
p4522
I1
g1825
g1825
tp4523
sg1530
(VBiu.biu.biu
p4524
I1
V\u6cb3\u5357
p4525
V\u6d1b\u9633
p4526
tp4527
sg1532
(V\u5546\u4e18\u7f8e\u89c6\u773c\u955c
p4528
I0
V\u6cb3\u5357
p4529
V\u5546\u4e18
p4530
tp4531
sg1534
(VKevin
p4532
I1
V\u4e0a\u6d77
p4533
V\u6d66\u4e1c\u65b0\u533a
p4534
tp4535
sg1536
(V\u51cc\U0001f493\u98a8
p4536
I1
V\u5317\u4eac
p4537
V\u4e30\u53f0
p4538
tp4539
sg1538
(V\u8ffd\u6c42\u5353\u8d8a
p4540
I1
V\u6cb3\u5357
p4541
V\u5546\u4e18
p4542
tp4543
sg1540
(V\u5fae\u4fe1\u652f\u4ed8
p4544
I0
V\u5e7f\u4e1c
p4545
g1825
tp4546
sg1542
(V\u4f60\u8fd8\u8bb0\u5f97\u6211\u5417\u3002
p4547
I2
g1825
g1825
tp4548
sg1544
(V\u5706\u901a\u901f\u9012
p4549
I0
V\u4e0a\u6d77
p4550
V\u9752\u6d66
p4551
tp4552
sg1546
(V\u79e6\u65f6\u660e\u6708
p4553
I0
V\u6d59\u6c5f
p4554
V\u676d\u5dde
p4555
tp4556
sg1548
(V\u5468\u5e08\u5916\u9662
p4557
I0
V\u6cb3\u5357
p4558
V\u5468\u53e3
p4559
tp4560
sg1550
(V\u2076\u2076\u2076\u2086\u2086\u2086666
p4561
I2
V\u6cb3\u5357
p4562
V\u5546\u4e18
p4563
tp4564
ssg1552
(dp4565
g3831
g1138
sg4372
g930
sg3106
g726
sg2668
g486
sg3046
g692
sg2203
g222
sg2052
g140
sg2653
g478
sg4208
g1348
sg2084
g156
sg3823
g1134
sg3162
g758
sg3906
g1178
sg2384
g328
sg3528
g970
sg4121
g1296
sg2159
g198
sg3285
g832
sg3624
g1022
sg2706
g506
sg2348
g308
sg2980
g654
sg3631
g1026
sg4099
g1282
sg4300
g1402
sg2998
g664
sg3711
g1072
sg2330
g298
sg1815
g4
sg1870
g36
sg2911
g616
sg3860
g1154
sg2277
g266
sg2702
g504
sg1933
g72
sg2068
g148
sg4220
g1356
sg1892
g48
sg3443
g918
sg4109
g1288
sg3447
g920
sg3139
g744
sg3770
g1104
sg2162
g200
sg4385
g1452
sg3560
g986
sg4527
g1530
sg3998
g1226
sg1862
g32
sg4492
g1510
sg3012
g672
sg3847
g1146
sg1856
g28
sg1966
g92
sg3662
g1042
sg2934
g628
sg1925
g66
sg3987
g1220
sg3415
g902
sg3643
g1032
sg2769
g540
sg3639
g1030
sg1842
g18
sg2418
g348
sg1900
g52
sg2064
g146
sg2811
g562
sg3959
g1206
sg2686
g496
sg3357
g870
sg2305
g282
sg3578
g996
sg4046
g1254
sg3451
g922
sg4476
g1502
sg2080
g154
sg3778
g1108
sg2674
g490
sg2288
g272
sg1952
g84
sg2815
g564
sg2406
g342
sg4356
g1434
sg3251
g810
sg4331
g1420
sg3034
g686
sg1874
g38
sg4432
g1478
sg2587
g440
sg3076
g710
sg2803
g558
sg2404
g340
sg3854
g1150
sg2807
g560
sg2147
g192
sg2005
g114
sg2048
g138
sg2556
g422
sg3202
g780
sg3417
g904
sg2664
g484
sg3738
g1086
sg3259
g816
sg2114
g172
sg3995
g1224
sg2946
g634
sg3072
g708
sg4414
g1468
sg2745
g528
sg3506
g956
sg2414
g346
sg1848
g22
sg4392
g1456
sg2510
g396
sg2230
g240
sg3767
g1102
sg4080
g1272
sg2690
g498
sg2580
g436
sg3231
g798
sg3253
g812
sg2994
g662
sg3262
g818
sg3270
g824
sg1830
g12
sg1970
g94
sg2442
g360
sg4256
g1378
sg2096
g162
sg2961
g642
sg3425
g908
sg4225
g1360
sg3401
g894
sg4050
g1256
sg3620
g1020
sg2851
g582
sg3947
g1200
sg4105
g1286
sg2382
g326
sg2026
g126
sg1978
g98
sg3014
g674
sg4309
g1408
sg2528
g406
sg2609
g452
sg3714
g1074
sg2982
g656
sg2835
g574
sg2546
g416
sg3128
g738
sg2922
g622
sg3677
g1052
sg4168
g1324
sg2030
g128
sg3489
g946
sg4140
g1308
sg2270
g262
sg2165
g202
sg2536
g410
sg3864
g1156
sg4088
g1276
sg1935
g74
sg2627
g462
sg3153
g752
sg2011
g118
sg1904
g54
sg4466
g1496
sg3499
g952
sg3018
g676
sg2907
g614
sg3281
g830
sg3146
g748
sg3971
g1212
sg4198
g1342
sg3328
g854
sg2476
g378
sg1846
g20
sg1918
g62
sg1929
g70
sg4394
g1458
sg3300
g840
sg1983
g102
sg3409
g898
sg3132
g740
sg4138
g1306
sg2498
g390
sg3266
g822
sg4279
g1390
sg2629
g464
sg3610
g1014
sg2623
g460
sg3381
g884
sg3975
g1214
sg2340
g304
sg2430
g354
sg2564
g426
sg4218
g1354
sg3343
g862
sg3991
g1222
sg4054
g1258
sg2129
g182
sg4499
g1514
sg3526
g968
sg3807
g1126
sg3324
g852
sg4117
g1292
sg2360
g314
sg2482
g382
sg3687
g1058
sg2839
g576
sg3798
g1120
sg2544
g414
sg3734
g1084
sg3750
g1092
sg2446
g362
sg2318
g290
sg1914
g60
sg2356
g312
sg4298
g1400
sg2583
g438
sg3120
g734
sg2400
g338
sg2717
g512
sg3220
g790
sg1950
g82
sg3239
g802
sg4267
g1384
sg2660
g482
sg2044
g136
sg4282
g1392
sg4496
g1512
sg2396
g336
sg3544
g978
sg2285
g270
sg3048
g694
sg3393
g890
sg4129
g1300
sg2177
g208
sg1823
g8
sg3882
g1166
sg4038
g1250
sg4154
g1316
sg2173
g206
sg4507
g1518
sg3878
g1164
sg2566
g428
sg3255
g814
sg3379
g882
sg2368
g318
sg2719
g514
sg2181
g210
sg3666
g1046
sg3223
g792
sg3135
g742
sg2713
g510
sg2274
g264
sg3564
g988
sg2853
g584
sg2885
g602
sg3471
g936
sg4519
g1524
sg3038
g688
sg2950
g636
sg2773
g542
sg3742
g1088
sg2462
g370
sg3245
g806
sg1956
g86
sg2133
g184
sg3654
g1038
sg2314
g288
sg3172
g764
sg2450
g364
sg3936
g1194
sg2514
g398
sg2281
g268
sg4564
g1550
sg3870
g1160
sg2238
g244
sg3028
g682
sg2260
g256
sg3347
g864
sg4074
g1268
sg3124
g736
sg4531
g1532
sg2324
g294
sg3756
g1096
sg3819
g1132
sg3206
g782
sg3805
g1124
sg2151
g194
sg2638
g470
sg3375
g880
sg3540
g976
sg4302
g1404
sg2723
g516
sg3782
g1110
sg2709
g508
sg3944
g1198
sg3351
g866
sg3064
g704
sg4015
g1238
sg2823
g568
sg3858
g1152
sg2018
g122
sg3874
g1162
sg3190
g774
sg3839
g1142
sg2765
g538
sg3308
g844
sg3461
g928
sg3701
g1066
sg4131
g1302
sg3421
g906
sg2220
g234
sg2307
g284
sg3886
g1168
sg2901
g610
sg2137
g186
sg3026
g680
sg3510
g958
sg3924
g1188
sg4237
g1368
sg4194
g1340
sg4260
g1380
sg2248
g250
sg4076
g1270
sg1896
g50
sg3297
g838
sg4368
g1442
sg4002
g1230
sg2338
g302
sg2056
g142
sg2819
g566
sg4223
g1358
sg3552
g982
sg3084
g714
sg2490
g386
sg2670
g488
sg3951
g1202
sg4398
g1460
sg2301
g280
sg4548
g1542
sg3264
g820
sg2264
g258
sg3361
g872
sg3596
g1006
sg1987
g104
sg3210
g784
sg3225
g794
sg4345
g1428
sg2617
g456
sg2100
g164
sg2022
g124
sg4511
g1520
sg4248
g1374
sg2631
g466
sg2990
g660
sg3339
g860
sg3918
g1184
sg2256
g254
sg4019
g1240
sg2036
g132
sg2843
g578
sg4435
g1480
sg3194
g776
sg2576
g434
sg2076
g152
sg2919
g620
sg3920
g1186
sg3722
g1078
sg1939
g76
sg2486
g384
sg4439
g1482
sg2334
g300
sg4418
g1470
sg3683
g1056
sg3429
g910
sg2108
g168
sg2678
g492
sg2426
g352
sg3053
g698
sg3679
g1054
sg1910
g58
sg3397
g892
sg3469
g934
sg2003
g112
sg4406
g1464
sg1884
g44
sg4030
g1246
sg3705
g1068
sg2791
g552
sg3176
g766
sg2494
g388
sg2869
g594
sg4339
g1424
sg2954
g638
sg3902
g1176
sg2560
g424
sg3791
g1116
sg4058
g1260
sg2548
g418
sg3216
g788
sg1921
g64
sg2650
g476
sg2169
g204
sg3851
g1148
sg2986
g658
sg3691
g1060
sg3536
g974
sg2657
g480
sg3752
g1094
sg4294
g1398
sg2569
g430
sg2795
g554
sg4315
g1412
sg3485
g944
sg3815
g1130
sg4353
g1432
sg3746
g1090
sg3289
g834
sg2212
g228
sg4402
g1462
sg2224
g236
sg4450
g1488
sg2466
g372
sg4174
g1328
sg4458
g1492
sg4454
g1490
sg4192
g1338
sg3650
g1036
sg3914
g1182
sg2310
g286
sg4231
g1364
sg2266
g260
sg4113
g1290
sg3184
g770
sg2199
g220
sg4488
g1508
sg3586
g1000
sg4026
g1244
sg1838
g16
sg2857
g588
sg3389
g888
sg3114
g730
sg3707
g1070
sg2040
g134
sg2458
g368
sg1980
g100
sg3518
g964
sg2621
g458
sg2352
g310
sg1942
g78
sg2438
g358
sg3166
g760
sg2642
g472
sg2244
g248
sg3411
g900
sg3697
g1064
sg4160
g1320
sg4227
g1362
sg3602
g1010
sg3335
g858
sg2903
g612
sg3355
g868
sg3274
g826
sg3455
g924
sg2032
g130
sg4410
g1466
sg2394
g334
sg1826
g10
sg2873
g596
sg3002
g666
sg3983
g1218
sg3786
g1112
sg4484
g1506
sg3592
g1004
sg3503
g954
sg3385
g886
sg3143
g746
sg2926
g624
sg2591
g442
sg2422
g350
sg3198
g778
sg1999
g110
sg2942
g632
sg2593
g444
sg3548
g980
sg3764
g1100
sg2753
g532
sg1888
g46
sg2506
g394
sg1852
g24
sg2532
g408
sg3730
g1082
sg2897
g608
sg4214
g1352
sg2694
g500
sg4521
g1526
sg2861
g590
sg2502
g392
sg1964
g90
sg3160
g756
sg4042
g1252
sg1860
g30
sg4422
g1472
sg3802
g1122
sg3110
g728
sg3022
g678
sg4150
g1314
sg1854
g26
sg2877
g598
sg4360
g1436
sg4426
g1474
sg1946
g80
sg2698
g502
sg3483
g942
sg2958
g640
sg1908
g56
sg4146
g1312
sg3437
g914
sg1995
g108
sg2110
g170
sg3616
g1018
sg4263
g1382
sg3332
g856
sg2240
g246
sg2827
g570
sg3098
g722
sg3928
g1190
sg4382
g1450
sg2735
g522
sg2322
g292
sg4206
g1346
sg2191
g216
sg2372
g320
sg4171
g1326
sg4535
g1534
sg2326
g296
sg4202
g1344
sg4335
g1422
sg3628
g1024
sg3316
g848
sg2731
g520
sg3170
g762
sg2968
g646
sg4188
g1336
sg2757
g534
sg2799
g556
sg4462
g1494
sg4066
g1264
sg4430
g1476
sg3788
g1114
sg2207
g224
sg2143
g190
sg3795
g1118
sg3365
g874
sg4070
g1266
sg2682
g494
sg3229
g796
sg2410
g344
sg2088
g158
sg2635
g468
sg2472
g376
sg3955
g1204
sg4210
g1350
sg4349
g1430
sg3635
g1028
sg3669
g1048
sg3760
g1098
sg3304
g842
sg4480
g1504
sg3278
g828
sg4164
g1322
sg4103
g1284
sg3156
g754
sg3479
g940
sg2741
g526
sg2978
g652
sg4323
g1416
sg2060
g144
sg2881
g600
sg4327
g1418
sg2468
g374
sg4119
g1294
sg4552
g1544
sg2123
g178
sg4389
g1454
sg3320
g850
sg2227
g238
sg1991
g106
sg3835
g1140
sg3898
g1174
sg4523
g1528
sg3516
g962
sg2889
g604
sg3514
g960
sg3495
g950
sg2552
g420
sg3963
g1208
sg4062
g1262
sg4096
g1280
sg2783
g548
sg2234
g242
sg2938
g630
sg2292
g274
sg2294
g276
sg4022
g1242
sg3718
g1076
sg2478
g380
sg3235
g800
sg4362
g1438
sg2252
g252
sg4125
g1298
sg3647
g1034
sg2388
g330
sg2189
g214
sg2847
g580
sg3940
g1196
sg4376
g1446
sg2749
g530
sg4313
g1410
sg2007
g116
sg4543
g1538
sg4378
g1448
sg1866
g34
sg2855
g586
sg3057
g700
sg4184
g1334
sg3590
g1002
sg2185
g212
sg3572
g992
sg4144
g1310
sg3843
g1144
sg4271
g1386
sg3575
g994
sg4503
g1516
sg2218
g232
sg3475
g938
sg3004
g668
sg3894
g1172
sg4556
g1546
sg4446
g1486
sg4244
g1372
sg3080
g712
sg2613
g454
sg2104
g166
sg2520
g402
sg3405
g896
sg3568
g990
sg2434
g356
sg3118
g732
sg4134
g1304
sg2378
g324
sg2374
g322
sg3459
g926
sg1960
g88
sg2777
g544
sg4286
g1394
sg3465
g932
sg3664
g1044
sg3774
g1106
sg1880
g42
sg2572
g432
sg4275
g1388
sg3441
g916
sg2454
g366
sg2127
g180
sg3369
g876
sg2540
g412
sg2155
g196
sg3068
g706
sg3293
g836
sg3090
g718
sg4560
g1548
sg2930
g626
sg3094
g720
sg2121
g176
sg2831
g572
sg3598
g1008
sg4290
g1396
sg4515
g1522
sg3979
g1216
sg4341
g1426
sg3693
g1062
sg3556
g984
sg2976
g650
sg2601
g448
sg3032
g684
sg2781
g546
sg4092
g1278
sg2787
g550
sg3312
g846
sg4319
g1414
sg2364
g316
sg4366
g1440
sg2141
g188
sg2390
g332
sg1974
g96
sg3866
g1158
sg2524
g404
sg2072
g150
sg2915
g618
sg3102
g724
sg3249
g808
sg2516
g400
sg3614
g1016
sg2015
g120
sg3582
g998
sg2972
g648
sg2739
g524
sg4007
g1234
sg3061
g702
sg4178
g1330
sg2298
g278
sg3008
g670
sg3910
g1180
sg3890
g1170
sg3967
g1210
sg4005
g1232
sg2893
g606
sg4240
g1370
sg4011
g1236
sg3086
g716
sg4084
g1274
sg4539
g1536
sg3522
g966
sg3491
g948
sg1834
g14
sg3433
g912
sg2646
g474
sg2214
g230
sg2761
g536
sg3532
g972
sg2117
g174
sg2210
g226
sg1927
g68
sg2727
g518
sg3726
g1080
sg3180
g768
sg4252
g1376
sg2965
g644
sg3373
g878
sg3811
g1128
sg3673
g1050
sg4034
g1248
sg3606
g1012
sg4470
g1498
sg3042
g690
sg4306
g1406
sg3932
g1192
sg2597
g446
sg2195
g218
sg4443
g1484
sg2344
g306
sg3188
g772
sg4180
g1332
sg2865
g592
sg3827
g1136
sg3214
g786
sg2605
g450
sg3658
g1040
sg4156
g1318
sg3150
g750
sg4546
g1540
sg2092
g160
sg3241
g804
sg1876
g40
sg1819
g6
sg4472
g1500
sg4233
g1366
sg3050
g696
ssbtp4566
.